((dp0
S'arm_dbg_args'
p1
S'-via:"e:\\Documents\\Michiel\\Programmeren\\Marmalade\\HelloWorld\\build_helloworld_vc12x\\HelloWorld_vc12x_arm_debug.via" -qemu'
p2
sS'game-icf'
p3
S''
p4
sS'dist'
p5
NsS'csproj'
p6
g4
sS'module_path_append'
p7
NsS'global_path'
p8
S'e:\\documents\\michiel\\programmeren\\marmalade'
p9
sS'system_path'
p10
S'c:\\marmalade\\7.4\\s3e\\makefile_builder'
p11
sS'android_x86_dbg_args'
p12
S'../../tools/DeployTool/DeployTool.exe --dir "e:\\Documents\\Michiel\\Programmeren\\Marmalade\\HelloWorld\\build_helloworld_vc12x"'
p13
sS'no-emit'
p14
NsS'arm-float-abi'
p15
g4
sS'arm_rel_rtsm_args'
p16
S'-via:"e:\\Documents\\Michiel\\Programmeren\\Marmalade\\HelloWorld\\build_helloworld_vc12x\\HelloWorld_vc12x_arm_release.via" -qemu'
p17
sS'amd64'
p18
NsS'line-width'
p19
I80
sS'gcc_dbg_args'
p20
S'-via:"e:\\Documents\\Michiel\\Programmeren\\Marmalade\\HelloWorld\\build_helloworld_vc12x\\HelloWorld_vc12x_gcc_debug.via" -qemu'
p21
sS'android-x86'
p22
NsS'x86_dbg_exe'
p23
S'c:/marmalade/7.4/s3e\\win32\\s3e_simulator_debug.exe'
p24
sS'disable-runtime-checks'
p25
NsS'release'
p26
NsS'no-make'
p27
NsS'xcode-x86-build-settings'
p28
g4
sS'optimise-size'
p29
NsS'output-name-debug'
p30
g4
sS'arm-fpu'
p31
g4
sS'proj_name'
p32
S'HelloWorld_vc12x'
p33
sS'enable-stdinc'
p34
NsS'compiler'
p35
g4
sS'execute'
p36
NsS'compile-static'
p37
NsS'msvc-project'
p38
I01
sS'buildenv'
p39
S'VC12X'
p40
sS'quick'
p41
NsS'module_path'
p42
NsS'use-release-std-libs'
p43
NsS'using_perforce'
p44
I00
sS'tizen-x86'
p45
NsS'mips-s3e'
p46
NsS's3e-api-lib-name'
p47
g4
sS'ios-no-pic'
p48
NsS'shared-arm-lib'
p49
NsS'arm-cpu'
p50
g4
sS'compile-thumb'
p51
NsS'no-ide'
p52
NsS'msvc-version'
p53
S'6.0'
p54
sS'arm'
p55
NsS'builddir'
p56
g4
sS'compile-debug-as-release'
p57
I0
sS'arm-arch'
p58
g4
sS'brief'
p59
NsS'dll'
p60
NsS'buildenv-toolset'
p61
g4
sS'version'
p62
NsS'ccache'
p63
I0
sS'offline'
p64
NsS'ios-version'
p65
g4
sS'hub_data'
p66
g4
sS'fake_vc_call'
p67
I01
sS'jobs'
p68
I0
sS'linkflags'
p69
NsS'debug'
p70
NsS'xcode-build-order'
p71
g4
sS'gcc_rel_rtsm_args'
p72
S'-via:"e:\\Documents\\Michiel\\Programmeren\\Marmalade\\HelloWorld\\build_helloworld_vc12x\\HelloWorld_vc12x_gcc_release.via" -qemu'
p73
sS'done_defaults'
p74
I1
sS'path'
p75
NsS's3e-data-dir'
p76
S'e:/Documents/Michiel/Programmeren/Marmalade/HelloWorld\\data'
p77
sS'enable-exceptions'
p78
NsS'osx-dll'
p79
NsS'extension'
p80
g4
sS'no-vc6'
p81
NsS'non-interactive'
p82
NsS'win32-console'
p83
NsS'dist-format'
p84
g4
sS's3e-force-arch'
p85
NsS'dump_defines'
p86
NsS'use_prebuilt'
p87
NsS'gcc-version'
p88
g4
sS'x86_dbg_args'
p89
S'-via:"e:\\Documents\\Michiel\\Programmeren\\Marmalade\\HelloWorld\\build_helloworld_vc12x\\HelloWorld_vc12x_debug.via"'
p90
sS'tizen_x86_dbg_args'
p91
g13
sS'arm-debugger'
p92
g4
sS'use_temp_extension'
p93
NsS'verbose'
p94
I0
sS'log'
p95
NsS'no-strip'
p96
NsS'rebuild'
p97
NsS'win32-simulator-dll'
p98
NsS'strict'
p99
NsS'mips_dbg_args'
p100
g13
sS'enable-global-path'
p101
NsS'cflags'
p102
NsS'dist-dir'
p103
g4
sS'xcode-arm-build-settings'
p104
g4
sS'jflags'
p105
NsS'csprojSDKRefs'
p106
g4
sS'tizen_x86_rel_exe'
p107
S'c:\\marmalade\\7.4\\s3e\\makefile_builder\\tool_launcher.exe'
p108
sS'test-assets'
p109
S'Default'
p110
sS'distcc'
p111
NsS'external-compiler'
p112
NsS'no-distcc'
p113
NsS'preinclude'
p114
NsS'using_sdk'
p115
I01
sS'nologo'
p116
NsS'warn-level'
p117
I2
sS'mips_dbg_exe'
p118
g108
sS'mkb_in'
p119
S'e:/Documents/Michiel/Programmeren/Marmalade/HelloWorld/HelloWorld.mkb'
p120
sS'tizen_x86_dbg_exe'
p121
g108
sS'arm_dbg_exe'
p122
S'c:/marmalade/7.4/s3e\\bin\\armdebug.exe'
p123
sS'csprojDLLRef'
p124
NsS'tizen_x86_rel_args'
p125
g13
sS'android_x86_dbg_exe'
p126
g108
sS'test-config'
p127
g4
sS'list-targets'
p128
NsS'arm_rel_exe'
p129
g108
sS'arm_rel_args'
p130
g13
sS'makedeps'
p131
NsS'android_x86_rel_exe'
p132
g108
sS'default-buildenv'
p133
S'vc12x'
p134
sS'x86_rel_exe'
p135
g24
sS'preprocess-java'
p136
NsS'mips_rel_args'
p137
g13
sS'defines'
p138
NsS'lib'
p139
NsS'global_argv'
p140
(lp141
S'C:\\Marmalade\\7.4\\s3e\\makefile_builder\\mkb.py'
p142
aS'e:/Documents/Michiel/Programmeren/Marmalade/HelloWorld/HelloWorld.mkb'
p143
aS'--buildenv=VC12X'
p144
aS'--test-assets'
p145
ag110
aS'--fake-vc-call'
p146
aS'--default-buildenv=vc12x'
p147
aS'--msvc-project'
p148
asS'make'
p149
NsS'optimise-speed'
p150
NsS'internal'
p151
NsS'rvct-version'
p152
g4
sS'deploy-only'
p153
NsS'x86'
p154
NsS'deploy'
p155
g4
sS'x86_run_exe'
p156
S'c:/marmalade/7.4/s3e\\win32\\s3e_console.exe'
p157
sS'x86_rel_args'
p158
S'-via:"e:\\Documents\\Michiel\\Programmeren\\Marmalade\\HelloWorld\\build_helloworld_vc12x\\HelloWorld_vc12x_release.via"'
p159
sS'gcc_rel_args'
p160
g13
sS'mips'
p161
NsS'xcode-build-settings'
p162
g4
sS'incredibuild'
p163
NsS'strict-compile'
p164
NsS'use-auto-subdirs'
p165
NsS'mips_rel_exe'
p166
g108
sS'android_x86_rel_args'
p167
g13
sS'app-icf'
p168
g4
sS'deployargs'
p169
NsS'iosnativedebug'
p170
NsS'mkf_in'
p171
(lp172
sS'strict-mkb'
p173
NsS'executeargs'
p174
NsS'clean'
p175
NsS'no-asm'
p176
NsS'output-name'
p177
g4
sS'no-modules'
p178
NsS'find_define'
p179
g4
s(dp180
S'c:\\marmalade\\7.4\\s3e\\makefile_builder\\plugins\\Emitter.pyc'
p181
F1409106506.0
sS'c:\\marmalade\\7.4\\s3e\\makefile_builder\\templates\\ws8_ext_sln.pyc'
p182
F1409106508.0
sS'c:\\marmalade\\7.4\\s3e\\makefile_builder\\templates\\MainWindow.xib'
p183
F1409103204.0
sS'c:\\marmalade\\7.4\\s3e\\makefile_builder\\templates\\template.suo'
p184
F1409103204.0
sS'c:\\marmalade\\7.4\\s3e\\makefile_builder\\plugins\\xcode4_schememanagement.py'
p185
F1409103204.0
sS'c:\\marmalade\\7.4\\s3e\\makefile_builder\\templates\\ws81_sln.pyc'
p186
F1409106508.0
sS'c:\\marmalade\\7.4\\s3e\\makefile_builder\\templates\\win8_ext_csproj.pyc'
p187
F1409106508.0
sS'c:\\marmalade\\7.4\\s3e\\makefile_builder\\mkb_option.pyc'
p188
F1409106506.0
sS'c:\\marmalade\\7.4\\s3e\\makefile_builder\\plugins\\s3e_xcode.py'
p189
F1409103204.0
sS'c:\\marmalade\\7.4\\s3e\\makefile_builder\\plugins\\s3e_scons.pyc'
p190
F1409106506.0
sS'c:\\marmalade\\7.4\\s3e\\makefile_builder\\templates\\win8_vcxproj.pyc'
p191
F1409106508.0
sS'c:\\marmalade\\7.4\\s3e\\makefile_builder\\plugins\\null.pyc'
p192
F1409106506.0
sS'c:\\marmalade\\7.4\\s3e\\makefile_builder\\templates\\vc8_user.pyc'
p193
F1409106506.0
sS'c:\\marmalade\\7.4\\s3e\\makefile_builder\\templates\\wp81_ext_sln.pyc'
p194
F1409106508.0
sS'c:\\marmalade\\7.4\\s3e\\makefile_builder\\templates\\scons.pyc'
p195
F1409106506.0
sS'c:\\marmalade\\7.4\\s3e\\makefile_builder\\templates\\wp8_ext_csproj.pyc'
p196
F1409106508.0
sS'c:\\marmalade\\7.4\\s3e\\makefile_builder\\templates\\xcode_pbxuser.py'
p197
F1409103204.0
sS'c:\\marmalade\\7.4\\s3e\\makefile_builder\\plugins\\s3e_qmake.py'
p198
F1409103204.0
sS'c:\\marmalade\\7.4\\s3e\\makefile_builder\\plugins\\iphone.pyc'
p199
F1409106506.0
sS'c:\\marmalade\\7.4\\s3e\\makefile_builder\\templates\\ws81_ext_csproj.pyc'
p200
F1409106508.0
sS'c:\\marmalade\\7.4\\s3e\\makefile_builder\\templates\\vc6_opt.pyc'
p201
F1409106506.0
sS'c:\\marmalade\\7.4\\s3e\\makefile_builder\\plugins\\s3e_win8.pyc'
p202
F1409106506.0
sS'c:\\marmalade\\7.4\\s3e\\makefile_builder\\mkb_main.pyc'
p203
F1409106506.0
sS'c:\\marmalade\\7.4\\s3e\\makefile_builder\\templates\\wp8_csproj.pyc'
p204
F1409106508.0
sS'c:\\marmalade\\7.4\\s3e\\makefile_builder\\templates\\win32_vcproj.pyc'
p205
F1409106506.0
sS'c:\\marmalade\\7.4\\s3e\\makefile_builder\\templates\\win8_sln.pyc'
p206
F1409106508.0
sS'c:\\marmalade\\7.4\\s3e\\makefile_builder\\mkb_launcher.exe'
p207
F1409103760.0
sS'c:\\marmalade\\7.4\\s3e\\makefile_builder\\plugins\\osx_xcode.pyc'
p208
F1409106506.0
sS'c:\\marmalade\\7.4\\s3e\\makefile_builder\\plugins'
p209
F1409999850.4932125
sS'c:\\marmalade\\7.4\\s3e\\makefile_builder\\templates\\wp8_csproj_user.pyc'
p210
F1409106508.0
sS'c:\\marmalade\\7.4\\s3e\\makefile_builder\\plugins\\win32_vc6.pyc'
p211
F1409106506.0
sS'c:\\marmalade\\7.4\\s3e\\makefile_builder\\plugins\\s3e_vc6.pyc'
p212
F1409106506.0
sS'c:\\marmalade\\7.4\\s3e\\makefile_builder\\templates\\vc10_user.pyc'
p213
F1409106506.0
sS'c:\\marmalade\\7.4\\s3e\\makefile_builder\\docs\\deprecated.defines.txt'
p214
F1409103204.0
sS'c:\\marmalade\\7.4\\s3e\\makefile_builder\\templates\\wp81_csproj_user.pyc'
p215
F1409106508.0
sS'c:\\marmalade\\7.4\\s3e\\makefile_builder\\templates\\ws81_ext_sln.pyc'
p216
F1409106508.0
sS'c:\\marmalade\\7.4\\s3e\\makefile_builder\\templates\\make.py'
p217
F1409103204.0
sS'c:\\marmalade\\7.4\\s3e\\makefile_builder\\plugins\\wp81_wp81.pyc'
p218
F1409106506.0
sS'c:\\marmalade\\7.4\\s3e\\makefile_builder\\plugins\\s3e_qmake.pyc'
p219
F1409999850.3654675
sS'c:\\marmalade\\7.4\\s3e\\makefile_builder\\templates\\mips_linker_script'
p220
F1409103204.0
sS'c:\\marmalade\\7.4\\s3e\\makefile_builder\\plugins\\deploy.pyc'
p221
F1409106506.0
sS'c:\\marmalade\\7.4\\s3e\\makefile_builder\\plugins\\ws81_ws81.pyc'
p222
F1409106506.0
sS'c:\\marmalade\\7.4\\s3e\\makefile_builder\\mkb.py'
p223
F1409103204.0
sS'c:\\marmalade\\7.4\\s3e\\makefile_builder\\docs\\options.txt'
p224
F1409103204.0
sS'c:\\marmalade\\7.4\\s3e\\makefile_builder\\mkb_parser.pyc'
p225
F1409106506.0
sS'c:\\marmalade\\7.4\\s3e\\makefile_builder\\templates\\qmake_user.py'
p226
F1409103204.0
sS'c:\\marmalade\\7.4\\s3e\\makefile_builder\\docs\\mkb.defines.txt'
p227
F1409103204.0
sS'c:\\marmalade\\7.4\\s3e\\makefile_builder\\deployment.pyc'
p228
F1409106506.0
sS'c:\\marmalade\\7.4\\s3e\\makefile_builder\\plugins\\wp8_wp8.pyc'
p229
F1409106506.0
sS'c:\\marmalade\\7.4\\s3e\\makefile_builder\\plugins\\linux_scons.pyc'
p230
F1409106506.0
sS'c:\\marmalade\\7.4\\s3e\\makefile_builder\\plugins\\s3e_web.pyc'
p231
F1409106506.0
sS'c:\\marmalade\\7.4\\s3e\\makefile_builder\\plugins\\S3EEmitter.pyc'
p232
F1409106506.0
sS'c:\\marmalade\\7.4\\s3e\\makefile_builder\\plugins\\Win8Emitter.pyc'
p233
F1409106506.0
sS'c:\\marmalade\\7.4\\s3e\\makefile_builder\\templates\\xcode4_arm.xcscheme'
p234
F1409103204.0
sS'c:\\marmalade\\7.4\\s3e\\makefile_builder\\plugins\\vc6_utils.pyc'
p235
F1409106506.0
sS'c:\\marmalade\\7.4\\s3e\\makefile_builder\\templates\\wp8_vcxproj.pyc'
p236
F1409106508.0
sS'c:\\marmalade\\7.4\\s3e\\makefile_builder\\templates\\xcode4.xcscheme'
p237
F1409103204.0
sS'c:\\marmalade\\7.4\\s3e\\makefile_builder\\plugins\\MakeEmitter.pyc'
p238
F1409106506.0
sS'c:\\marmalade\\7.4\\s3e\\makefile_builder\\plugins\\java.pyc'
p239
F1409106506.0
sS'c:\\marmalade\\7.4\\s3e\\makefile_builder\\plugins\\XcodeEmitter.pyc'
p240
F1409999849.8433163
sS'c:\\marmalade\\7.4\\s3e\\makefile_builder\\plugins\\XcodeEmitter.py'
p241
F1409103204.0
sS'c:\\marmalade\\7.4\\s3e\\makefile_builder\\mkb_globals.pyc'
p242
F1409106506.0
sS'c:\\marmalade\\7.4\\s3e\\makefile_builder\\tool_launcher.exe'
p243
F1409103760.0
sS'c:\\marmalade\\7.4\\s3e\\makefile_builder\\mkb_util.pyc'
p244
F1409106506.0
sS'c:\\marmalade\\7.4\\s3e\\makefile_builder\\plugins\\xcode4_schememanagement.pyc'
p245
F1409999849.8780317
sS'c:\\marmalade\\7.4\\s3e\\makefile_builder\\templates\\ws8_sln.pyc'
p246
F1409106508.0
sS'c:\\marmalade\\7.4\\s3e\\makefile_builder\\templates\\win32_sln.pyc'
p247
F1409106506.0
sS'c:\\marmalade\\7.4\\s3e\\makefile_builder\\templates\\wp81_ext_csproj.pyc'
p248
F1409106508.0
sS'c:\\marmalade\\7.4\\s3e\\makefile_builder\\plugins\\s3e_wp81.pyc'
p249
F1409106506.0
sS'c:\\marmalade\\7.4\\s3e\\makefile_builder\\plugins\\s3e_wp8.pyc'
p250
F1409106506.0
sS'c:\\marmalade\\7.4\\s3e\\makefile_builder\\templates\\qmake.py'
p251
F1409103204.0
sS'c:\\marmalade\\7.4\\s3e\\makefile_builder\\templates\\gdb_start.txt'
p252
F1409103204.0
sS'c:\\marmalade\\7.4\\s3e\\makefile_builder\\templates'
p253
F1409998163.6808057
sS'c:\\marmalade\\7.4\\s3e\\makefile_builder\\templates\\ws8_ext_csproj.pyc'
p254
F1409106508.0
sS'c:\\marmalade\\7.4\\s3e\\makefile_builder\\templates\\win8_csproj_user.pyc'
p255
F1409106508.0
sS'c:\\marmalade\\7.4\\s3e\\makefile_builder\\arm-linux-gcc.mkf'
p256
F1410001233.6061296
sS'c:\\marmalade\\7.4\\s3e\\makefile_builder\\templates\\vc7_suo.pyc'
p257
F1409106506.0
sS'c:\\marmalade\\7.4\\s3e\\makefile_builder\\plugins\\VisualStudioEmitter.pyc'
p258
F1409106506.0
sS'c:\\marmalade\\7.4\\s3e\\makefile_builder\\templates\\linker_script'
p259
F1409103204.0
sS'c:\\marmalade\\7.4\\s3e\\makefile_builder\\docs\\deprecated.options.txt'
p260
F1409103204.0
sS'c:\\marmalade\\7.4\\s3e\\makefile_builder\\plugins\\s3e_xcode.pyc'
p261
F1409999850.497215
sS'c:\\marmalade\\7.4\\s3e\\makefile_builder\\plugins\\s3e_ws8.pyc'
p262
F1409106506.0
sS'c:\\marmalade\\7.4\\s3e\\makefile_builder\\templates\\xcode4_DeployTool.xcscheme'
p263
F1409103204.0
sS'c:\\marmalade\\7.4\\s3e\\makefile_builder\\templates\\ws8_csproj_user.pyc'
p264
F1409106508.0
sS'c:\\marmalade\\7.4\\s3e\\makefile_builder\\plugins\\osx_scons.pyc'
p265
F1409106506.0
sS'c:\\marmalade\\7.4\\s3e\\makefile_builder\\templates\\ws81_csproj.pyc'
p266
F1409106508.0
sS'c:\\marmalade\\7.4\\s3e\\makefile_builder\\templates\\wp8_sln.pyc'
p267
F1409106508.0
sS'c:\\marmalade\\7.4\\s3e\\makefile_builder\\docs'
p268
F1409998163.810812
sS'c:\\marmalade\\7.4\\s3e\\makefile_builder\\plugins\\ws8_ws8.pyc'
p269
F1409106506.0
sS'c:\\marmalade\\7.4\\s3e\\makefile_builder\\docs\\deployment_options.txt'
p270
F1409103204.0
sS'c:\\marmalade\\7.4\\s3e\\makefile_builder\\templates\\win32_vcxproj_filters.pyc'
p271
F1409106506.0
sS'c:\\marmalade\\7.4\\s3e\\makefile_builder\\templates\\win32_dsw.pyc'
p272
F1409106506.0
sS'c:\\marmalade\\7.4\\s3e\\makefile_builder\\plugins\\s3e_ws81.pyc'
p273
F1409106506.0
sS'c:\\marmalade\\7.4\\s3e\\makefile_builder\\plugins\\SConsEmitter.pyc'
p274
F1409106506.0
sS'c:\\marmalade\\7.4\\s3e\\makefile_builder\\templates\\wp81_vcxproj.pyc'
p275
F1409106508.0
sS'c:\\marmalade\\7.4\\s3e\\makefile_builder\\plugins\\win8_utils.pyc'
p276
F1409106506.0
sS'c:\\marmalade\\7.4\\s3e\\makefile_builder\\templates\\template.opt'
p277
F1409103204.0
sS'c:\\marmalade\\7.4\\s3e\\makefile_builder\\plugins\\vc7_utils.pyc'
p278
F1409106506.0
sS'c:\\marmalade\\7.4\\s3e\\makefile_builder\\templates\\win32_dsp.pyc'
p279
F1409106506.0
sS'c:\\marmalade\\7.4\\s3e\\makefile_builder\\plugins\\s3e_make.pyc'
p280
F1409106506.0
sS'c:\\marmalade\\7.4\\s3e\\makefile_builder\\templates\\rvct_linker_script'
p281
F1409103204.0
sS'c:\\marmalade\\7.4\\s3e\\makefile_builder\\templates\\win8_csproj.pyc'
p282
F1409106508.0
sS'c:\\marmalade\\7.4\\s3e\\makefile_builder\\templates\\xcode.py'
p283
F1409103204.0
sS'c:\\marmalade\\7.4\\s3e\\makefile_builder\\templates\\ws8_vcxproj.pyc'
p284
F1409106508.0
sS'c:\\marmalade\\7.4\\s3e\\makefile_builder\\templates\\wp81_csproj.pyc'
p285
F1409106508.0
sS'c:\\marmalade\\7.4\\s3e\\makefile_builder\\mkb_upstream.pyc'
p286
F1409106506.0
sS'c:\\marmalade\\7.4\\s3e\\makefile_builder\\templates\\win32_vcxproj.pyc'
p287
F1409106506.0
sS'c:\\marmalade\\7.4\\s3e\\makefile_builder\\templates\\ws8_csproj.pyc'
p288
F1409106508.0
sS'c:\\marmalade\\7.4\\s3e\\makefile_builder\\docs\\parse_options.pyc'
p289
F1409106508.0
sS'c:\\marmalade\\7.4\\s3e\\makefile_builder\\templates\\Info.plist'
p290
F1409103204.0
sS'c:\\marmalade\\7.4\\s3e\\makefile_builder\\templates\\wp81_sln.pyc'
p291
F1409106508.0
sS'c:\\marmalade\\7.4\\s3e\\makefile_builder\\templates\\ws81_csproj_user.pyc'
p292
F1409106508.0
sS'c:\\marmalade\\7.4\\s3e\\makefile_builder\\templates\\ws81_vcxproj.pyc'
p293
F1409106508.0
sccopy_reg
_reconstructor
p294
(cmkb_main
MkbFile
p295
c__builtin__
object
p296
Ntp297
Rp298
(dp299
g5
(lp300
sS'target_name'
p301
S'HelloWorld'
p302
sS'current_file'
p303
g120
sS'package_path'
p304
(lp305
sS'post_build'
p306
(lp307
(lp308
S'c:/marmalade/7.4/s3e/tools'
p309
aS'C:\\Marmalade\\7.4\\s3e\\python\\python.exe .\\process_map.py "$(TargetPath)"'
p310
aa(S'c:\\marmalade\\7.4\\s3e\\bin'
p311
S'"s3e_plink" -l "$(TargetPath)" '
p312
g154
tp313
asS'librarys'
p314
(lp315
g294
(cmkb_main
Library
p316
g296
Ntp317
Rp318
(dp319
S'name'
p320
S'vc6_compat.lib'
p321
sS'expand_name'
p322
I00
sS'include_spec_rvct_objs'
p323
(lp324
sS'include_all_objs'
p325
I00
sS'share_arm'
p326
I00
sS'arch'
p327
S'x86'
p328
sS'nodebug'
p329
I00
sg35
Nsbag294
(g316
g296
Ntp330
Rp331
(dp332
g320
S's3e_cpp'
p333
sg322
I01
sg323
g324
sg325
I00
sg326
I00
sg327
Nsg329
I00
sg35
Nsbag294
(g316
g296
Ntp334
Rp335
(dp336
g320
S's3e'
p337
sg322
I01
sg323
(lp338
S'iwcrt.o'
p339
asg325
I00
sg326
I00
sg327
Nsg329
I00
sg35
Nsbag294
(g316
g296
Ntp340
Rp341
(dp342
g320
S's3e_api'
p343
sg322
I01
sg323
g324
sg325
I00
sg326
I00
sg327
S'x86'
p344
sg329
I01
sg35
Nsbag294
(g316
g296
Ntp345
Rp346
(dp347
g320
g343
sg322
I01
sg323
g324
sg325
I00
sg326
I00
sg327
S'!x86'
p348
sg329
I01
sg35
Nsbag294
(g316
g296
Ntp349
Rp350
(dp351
g320
S'stdc++'
p352
sg322
I00
sg323
g324
sg325
I00
sg326
I00
sg327
S'mips'
p353
sg329
I00
sg35
Nsbag294
(g316
g296
Ntp354
Rp355
(dp356
g320
S'c'
p357
sg322
I00
sg323
g324
sg325
I00
sg326
I00
sg327
S'mips'
p358
sg329
I00
sg35
Nsbag294
(g316
g296
Ntp359
Rp360
(dp361
g320
S'm'
p362
sg322
I00
sg323
g324
sg325
I00
sg326
I00
sg327
S'mips'
p363
sg329
I00
sg35
Nsbag294
(g316
g296
Ntp364
Rp365
(dp366
g320
S'gcc'
p367
sg322
I00
sg323
g324
sg325
I00
sg326
I00
sg327
S'mips'
p368
sg329
I00
sg35
Nsbag294
(g316
g296
Ntp369
Rp370
(dp371
g320
S'stdc++'
p372
sg322
I00
sg323
g324
sg325
I00
sg326
I00
sg327
S'gcc_x86_android'
p373
sg329
I00
sg35
Nsbag294
(g316
g296
Ntp374
Rp375
(dp376
g320
g357
sg322
I00
sg323
g324
sg325
I00
sg326
I00
sg327
S'gcc_x86_android'
p377
sg329
I00
sg35
Nsbag294
(g316
g296
Ntp378
Rp379
(dp380
g320
g362
sg322
I00
sg323
g324
sg325
I00
sg326
I00
sg327
S'gcc_x86_android'
p381
sg329
I00
sg35
Nsbag294
(g316
g296
Ntp382
Rp383
(dp384
g320
g367
sg322
I00
sg323
g324
sg325
I00
sg326
I00
sg327
S'gcc_x86_android'
p385
sg329
I00
sg35
NsbasS'library_paths'
p386
(lp387
g294
(cmkb_main
LibraryPath
p388
g296
Ntp389
Rp390
(dp391
S'expand_path'
p392
I01
sg320
S'c:/marmalade/7.4/s3e'
p393
sbasS'macros'
p394
(dp395
S'IW_PLATFORM_S3E'
p396
NsS'I3D_PLATFORM_S3E'
p397
NsS'S3E_INCLUDE_LEGACY'
p398
NsS'IW_SDK'
p399
NsS'__S3E__'
p400
NsS'_CRT_SECURE_NO_DEPRECATE'
p401
NsS'IW_APP_NAME'
p402
S'"HelloWorld"'
p403
sS'I3D_OS_S3E'
p404
NsS'IW_APP_VERSION'
p405
S'"1.0"'
p406
sS'IW_DEBUG'
p407
NssS'done_warnings'
p408
(dp409
sS'subprojects'
p410
(dp411
sS'deployments'
p412
(dp413
S'Default'
p414
g294
(cdeployment
Deployment
p415
g296
Ntp416
Rp417
(dp418
S'got_version'
p419
I0
sS'assets'
p420
g414
sS'mkb'
p421
g298
sS'target'
p422
Nsg327
(lp423
sS'options'
p424
(dp425
S'iphone-link-lib'
p426
(lp427
sS'game-icf'
p428
NsS'android-tm'
p429
NsS'winmobile-icon32'
p430
NsS'ws8-logo-image150x150'
p431
NsS'wp81-logo-image150x150'
p432
NsS'ws81-product-version'
p433
NsS'osx-ext-dll'
p434
(lp435
sS'iphone-provisioning-profile'
p436
NsS'ws8-splash-screen-image620x300'
p437
NsS'wp81-extra-pri'
p438
(lp439
sS'ws8-ext-capabilities'
p440
(lp441
sS'android-icon-hdpi'
p442
NsS'brew-icon-large'
p443
NsS'iphone-splash-full-orient'
p444
NsS'wp8-tile-fliptemplate-supports-large'
p445
NsS'iphone-show-status-bar'
p446
NsS'roku-requires-mkv'
p447
NsS'long-caption'
p448
NsS'android-pkgname'
p449
NsS'wp81-publisher-display-name'
p450
NsS'blackberry-permissions-read-device-identifying-information'
p451
NsS'ws81-certificate-end-date'
p452
NsS'psp-dlgcontentid'
p453
NsS'iphone-minimum-ios-version'
p454
NsS'target-folder'
p455
NsS'tizen-dist1-CA-path'
p456
NsS'symbian-icon2-format'
p457
NsS'tizen-author-key'
p458
NsS'firefoxos-icon-128X128'
p459
NsS'iphone-region'
p460
NsS'uiq3-icon3-mask'
p461
NsS'brew-encoding'
p462
NsS'android-x86'
p463
NsS'nds-initialcode'
p464
NsS'iphone-persistent-wifi'
p465
NsS'psp-snd0'
p466
NsS'roku-icon-focus-hd'
p467
NsS'winmobile-install-folder'
p468
NsS'android-external-res'
p469
(lp470
sS'ws8-product-version'
p471
NsS'brew-priviledges'
p472
NsS'iphone-icon-ipad-search'
p473
NsS'iphone-icon-ipad'
p474
NsS'roku-hidden'
p475
NsS'psp-titlename'
p476
NsS'wp81-product-version'
p477
NsS'symbian-icon1-mask'
p478
NsS'psp-parentallevel'
p479
NsS'splashscreen-use-all'
p480
NsS'wp8-author'
p481
NsS'symbian-disable-ecompxl'
p482
NsS'splashscreen-auto-onblack'
p483
NsS'win32-ext-dll'
p484
(lp485
sS'iphone-development-key'
p486
NsS'winmobile-icon48'
p487
NsS'android-unsigned'
p488
NsS'osx-appstore-category'
p489
NsS'version-revision'
p490
NsS'roku-icon-focus-sd'
p491
NsS'android-keystore'
p492
NsS'winmobile-png90'
p493
NsS'iphone-icon-ipad-high-res'
p494
NsS'iphone-disable-ipad'
p495
NsS'wp8-product-id'
p496
NsS'ws81-splash-screen-background'
p497
NsS'wp8-ext-capabilities'
p498
(lp499
sS'iphone-ipad-only'
p500
NsS'symbian-icon1-mask-black'
p501
NsS'iphone-nosign'
p502
NsS'iphone-bundle-localisations'
p503
NsS'winmobile-png60'
p504
NsS'blackberry-permissions-access-shared'
p505
NsS'blackberry-author'
p506
NsS'android-icon-xxxhdpi'
p507
NsS'olddeploytoolstyle'
p508
NsS'android_icon_gallery'
p509
NsS'wp81-splash-screen-background'
p510
NsS'winmobile-cab-compress'
p511
NsS'iphone-info-plist'
p512
NsS'ws81-ext-managed-dll'
p513
(lp514
sS'playbook-cskpass'
p515
NsS'ws8-distribution-pfx-password'
p516
NsS'symbian-key'
p517
NsS'app-icf'
p518
NsS'blackberry-storepass'
p519
NsS'wp8-tile-fliptemplate-back-title'
p520
NsS'brew-compress-loader'
p521
NsS'win32-pref-windowposy'
p522
NsS'win32-pref-windowposx'
p523
NsS'roku-requires-audiometadata'
p524
NsS'wp8-exclude-low-mem'
p525
NsS'iphone-icon-ipad-search-high-res'
p526
NsS'iphone-link-libdir'
p527
(lp528
sS'wp81-ext-capabilities'
p529
(lp530
sS'blackberry-permissions-read-geolocation'
p531
NsS'ws81-ext-device-capabilities'
p532
(lp533
sS'tizen-signed'
p534
NsS'android-extra-application-manifest'
p535
(lp536
sS'ws8-ext-native-dll'
p537
(lp538
sS'symbian-icon2-mask'
p539
NsS'iphone-backgroundmode-audio'
p540
NsS'webos-memory'
p541
NsS'android-keypass'
p542
NsS'name'
p543
NsS'uiq3-icon2-format'
p544
NsS'roku-splash-screen-sd'
p545
NsS'auto-derbh'
p546
NsS'roku-icon-side-sd'
p547
NsS'android-external-assets'
p548
(lp549
sS'nds-publicsavedatasize'
p550
NsS'splashscreen'
p551
NsS'brew-mif'
p552
NsS'iphone-icon-settings-high-res'
p553
NsS'android-manifest'
p554
NsS'ws81-splash-screen-image620x300'
p555
NsS'wp81-product-name'
p556
NsS's3e-compression'
p557
NsS'tizen-author-password'
p558
NsS'wp8-tile-fliptemplate-back-content'
p559
NsS'blackberry-extra-descriptor'
p560
(lp561
sS'symbian-icon1'
p562
NsS'symbian-icon2'
p563
NsS'android-extra-styles-file'
p564
NsS'wp81-publisher-id'
p565
NsS'nds-bannertitle-jp'
p566
NsS'wp81-logo-image44x44'
p567
NsS'osx-sign-for-store'
p568
NsS'symbian7-uid'
p569
NsS'wp8-tile-fliptemplate-large-back-content'
p570
NsS'wp81-phone-publisher-id'
p571
NsS'nds-bannertitle-cn'
p572
NsS'iphone-distribution-key'
p573
NsS'android-icon-gallery'
p574
NsS'blackberry-keystore'
p575
NsS'ws8-extra-res'
p576
(lp577
sS'caption'
p578
NsS'android-extra-manifest'
p579
(lp580
sS'wp81-ext-sdk-ref'
p581
(lp582
sS'android-icon-xxhdpi'
p583
NsS'version-minor'
p584
NsS'iphone-link-libdirs'
p585
(lp586
sS'iphone-icon-large'
p587
NsS'symbian-keypwd'
p588
NsS'symbian8-uid'
p589
NsS'symbian-cert-key'
p590
NsS'winmobile-ampd-part-number'
p591
NsS'arch'
p592
NsS'nds-romheadertemplate'
p593
NsS'webos-icon'
p594
NsS'wp81-ext-device-capabilities'
p595
(lp596
sS'psp-dlgprotectdocument'
p597
NsS'ws8-splash-screen-background'
p598
NsS'android-icon-mdpi'
p599
NsS'nds-icon'
p600
NsS'ws8-custom-manifest-fill'
p601
NsS'iphone-development-cert'
p602
NsS'blackberry-phone-icon'
p603
NsS'iphone-enable-4inch-retina'
p604
NsS'ws8-custom-manifest'
p605
NsS'version-major'
p606
NsS'wp8-genre-isgame'
p607
NsS'uiq3-uid'
p608
NsS'iphone-splash-retina-generate'
p609
NsS'tizen-hw-acceleration'
p610
NsS'iphone_bundle_localisations'
p611
NsS'tizen-dist1-key'
p612
NsS'wp81-custom-manifest-fill'
p613
NsS'wp8-custom-manifest'
p614
NsS'nds-bannertitle-ge'
p615
NsS'iphone-sign-for-distribution'
p616
NsS'wp8-tile-fliptemplate-medium-back-image'
p617
NsS'wp8-publisher-id'
p618
NsS'icon'
p619
NsS'wp8-exclude-wxga'
p620
NsS'wp81-identity-name'
p621
NsS'uiq3-icon2-mask'
p622
NsS'iphone-splashscreen-portrait'
p623
NsS'iphone-icon-high-res'
p624
NsS'ws81-distribution-pfx-password'
p625
NsS'playbook-author'
p626
NsS'android-icon-xhdpi'
p627
NsS'linux-ext-lib'
p628
(lp629
sS'blackberry-permissions-access-internet'
p630
NsS'wp8-exclude-720p'
p631
NsS'lgtv-use-drm'
p632
NsS'symbian-platsecflags'
p633
NsS'ws8-description'
p634
NsS'blackberry-playbook-icon'
p635
NsS'copyright'
p636
NsS'win32-gles-directory'
p637
NsS'version'
p638
NsS'ws81-logo-image150x150'
p639
NsS'osx-signing-identity-app'
p640
NsS'tizen-project-url'
p641
NsS'symbian-icon-svg'
p642
NsS'android-aliasname'
p643
NsS'psp-dlgmanual'
p644
NsS'brew-uid'
p645
NsS'symbian-locationsupport'
p646
NsS'wp81-logo-image50x50'
p647
NsS'ws8-ext-managed-dll'
p648
(lp649
sS'nds-bannertitle-it'
p650
NsS'ws81-custom-manifest-fill'
p651
NsS'ws8-ext-sdk-manifest-part'
p652
(lp653
sS'uiq3-icon1-mask'
p654
NsS'winmobile-icon16'
p655
NsS'ws8-product-name'
p656
NsS'blackberry-cskpass'
p657
NsS'winmobile-start-menu-folder'
p658
NsS'brew-clsid'
p659
NsS'roku-requires-bluetooth'
p660
NsS'ws8-ext-device-capabilities'
p661
(lp662
sS'blackberry-permissions-use-camera'
p663
NsS'ws81-extra-pri'
p664
(lp665
sS'iphone-prerendered-icon'
p666
NsS'iphone-appid'
p667
NsS'ws8-identity-name'
p668
NsS'tizen-dist2-CA-path'
p669
NsS'android-external-jars'
p670
(lp671
sS'winmobile-icon64'
p672
NsS'blackberry-permissions-post-notification'
p673
NsS'winmobile-setup-dll'
p674
NsS'firefoxos-manifest'
p675
NsS'win8-winrt-extra-res'
p676
(lp677
sS'wp81-ext-sdk-manifest-part'
p678
(lp679
sS'symbian9-uid'
p680
NsS'iphone-icon-ipad-ios7'
p681
NsS'winmobile-trace-file'
p682
NsS'roku-splash-color'
p683
NsS'psp-appversion'
p684
NsS'ws8-publisher-id'
p685
NsS'android-supports-gl-texture'
p686
(lp687
sS'winmobile-png45'
p688
NsS'wp81-extra-res'
p689
(lp690
sS'android-storepass'
p691
NsS'osx-signing-identity-inst'
p692
NsS'android-custom-activity'
p693
NsS'psp-discversion'
p694
NsS'wp81-ext-managed-dll'
p695
(lp696
sS'psp-copyright'
p697
NsS'embed-icf'
p698
NsS'tizen-manifest'
p699
NsS'osx-icon'
p700
NsS'webos-appinfo'
p701
NsS'psp-dlghealthwarning'
p702
NsS'webos-appid'
p703
NsS'roku-icon-side-hd'
p704
NsS'iphone-icon-ipad-search-high-res-ios7'
p705
NsS'ws81-ext-sdk-manifest-part'
p706
(lp707
sS'loader_name_prefix'
p708
NsS'nds-titlename'
p709
NsS'ws81-logo-image50x50'
p710
NsS'wp81-custom-manifest'
p711
NsS'osx-entitlements-plist'
p712
NsS'psp-dlgicon0'
p713
NsS'winmobile-nouninstall'
p714
NsS'psp-discid'
p715
NsS'tizen-dist2-password'
p716
NsS'ws8-ext-sdk-ref'
p717
(lp718
sS'iphone-extra-string'
p719
(lp720
sS'version-string'
p721
NsS'iphone-icon-high-res-ios7'
p722
NsS'blackberry-permissions-record-audio'
p723
NsS'ws8-certificate-end-date'
p724
NsS'tizen-so'
p725
(lp726
sS'wp8-tile-fliptemplate-small-image'
p727
NsS'playbook-authorid'
p728
NsS'iphone-signing-identity'
p729
NsS'roku-persist-quota'
p730
NsS'nds-bannertitle-fr'
p731
NsS'ws8-distribution-pfx'
p732
NsS'ws8-publisher-display-name'
p733
NsS'brew-icon-small'
p734
NsS'psp-dlgpic2'
p735
NsS'psp-dlgpic0'
p736
NsS'psp-pic0'
p737
NsS'psp-pic1'
p738
NsS'win32-pref-windowtitle'
p739
NsS'psp-icon0'
p740
NsS'psp-icon1'
p741
NsS'ws81-identity-name'
p742
NsS'winmobile-icon'
p743
NsS'iphone-no-splash'
p744
NsS'iphone-splash'
p745
NsS'iphone-app-fonts'
p746
NsS'wp8-ext-native-dll'
p747
(lp748
sS'wp81-splash-screen-image480x800'
p749
NsS'ws81-distribution-cer'
p750
NsS'uiq3-icon2'
p751
NsS'uiq3-icon3'
p752
NsS'uiq3-icon1'
p753
NsS'uiq3-icon1-format'
p754
NsS'ws8-logo-image50x50'
p755
NsS'symbian-icon2-mask-black'
p756
NsS'symbian-run-on-install'
p757
NsS'wp81-description'
p758
NsS'ws81-publisher-display-name'
p759
NsS'firefoxos-xulrunner'
p760
NsS'symbian-soundrecordsupport'
p761
NsS'nds-bannertitle-sp'
p762
NsS'psp-producer'
p763
NsS'iphone-apple-wwdr-cert'
p764
NsS'android-icon-nonstandard'
p765
NsS'win32-pref-processtitle'
p766
NsS'nds-bannertitle-hn'
p767
NsS'tizen-dist2-key'
p768
NsS'brew-depends'
p769
NsS'ws81-custom-manifest'
p770
NsS'iphone-icon-ipad-search-ios7'
p771
NsS'brew-icon-medium'
p772
NsS'iphone-bundle-url-name'
p773
NsS'wp8-tile-fliptemplate-large-front-image'
p774
NsS'tizen-dist2-CA-root-path'
p775
NsS'ws81-description'
p776
NsS'uiq3-icon3-format'
p777
NsS'ws81-logo-image30x30'
p778
NsS'win8-phone-extra-res'
p779
(lp780
sS'iphone-signing-host'
p781
NsS'tizen-icon'
p782
NsS'osx-info-plist'
p783
NsS'symbian-icon1-format'
p784
NsS'win8-store-extra-res'
p785
(lp786
sS'blackberry-authorid'
p787
NsS'ws81-publisher-id'
p788
NsS'ws81-distribution-pfx'
p789
NsS'wp8-description'
p790
NsS'iphone-link-opts'
p791
(lp792
sS'ws81-ext-sdk-ref'
p793
(lp794
sS'roku-splash-min-time'
p795
NsS'wp8-tile-fliptemplate-medium-front-image'
p796
NsS'provider'
p797
NsS'playbook-keystore'
p798
NsS'tizen-appid'
p799
NsS'wp8-extra-res'
p800
(lp801
sS'symbian-osexecsupport'
p802
NsS'android-install-location'
p803
NsS'nds-privatesavedatasize'
p804
NsS'playbook-storepass'
p805
NsS'android-icon-ldpi'
p806
NsS'manufacturer'
p807
NsS'itunes-artwork'
p808
NsS'iphone-extra-sections'
p809
NsS'ws81-product-name'
p810
NsS'ws81-ext-native-dll'
p811
(lp812
sS'ws8-extra-pri'
p813
(lp814
sS'win32-icon'
p815
NsS'ws8-logo-image30x30'
p816
NsS'wp8-ext-managed-dll'
p817
(lp818
sS'iphone-splashscreen-landscape'
p819
NsS'symbian-maxheapsize'
p820
NsS'nds-makercode'
p821
NsS'priv-sign-key'
p822
NsS'networking'
p823
NsS'android-icon'
p824
NsS'iphone-icon-settings'
p825
NsS'wp81-phone-product-id'
p826
NsS'firefoxos-icon-60X60'
p827
NsS'iphone-distribution-cert'
p828
NsS'android_extra_strings'
p829
NsS'nds-bannertitle-en'
p830
NsS'wp8-tile-fliptemplate-title'
p831
NsS'android-so'
p832
(lp833
sS'wp8-higher-mem'
p834
NsS'wp8-ext-sdk-ref'
p835
(lp836
sS'roku-splash-screen-hd'
p837
NsS'iphone-bundle-url-schemes'
p838
NsS'roku-screensaver-private'
p839
NsS'osx-extra-res'
p840
(lp841
sS'ws81-extra-res'
p842
(lp843
sS'playbook-icon'
p844
NsS'uid'
p845
NsS'pkguid-as-uid'
p846
NsS'wp81-ext-native-dll'
p847
(lp848
sS'tizen-dist1-password'
p849
NsS'roku-screensaver-title'
p850
NsS'osx-minimum-osx-version'
p851
NsS'symbian-cert'
p852
NsS'iphone-icon'
p853
NsS'ws81-ext-capabilities'
p854
(lp855
sS'ws8-distribution-cer'
p856
NsS'playbook-access-shared'
p857
NsS'iphone-icon-ipad-high-res-ios7'
p858
NsS'iphone-link-libs'
p859
(lp860
sS'wp8-exclude-wvga'
p861
NsS'assets'
p862
NsS'wp8-tile-fliptemplate-large-back-image'
p863
NsS'wp8-custom-manifest-fill'
p864
NsS'pub-sign-key'
p865
NsS'android-extra-strings'
p866
NsS'tizen-author-CA-path'
p867
Nssg320
g414
sbssS'platform'
p868
S'S3E'
p869
sg62
S'1.0'
p870
sS'arcade_platform'
p871
g4
sS'extensions'
p872
(dp873
sS'source_groups_tree'
p874
(dp875
S'Source'
p876
(dp877
S'e:/Documents/Michiel/Programmeren/Marmalade/HelloWorld/src/Main.cpp'
p878
(lp879
I1
a(dp880
asS'UI'
p881
(dp882
S'e:/Documents/Michiel/Programmeren/Marmalade/HelloWorld/src/MainMenu.cpp'
p883
(lp884
I1
ag880
asS'e:/Documents/Michiel/Programmeren/Marmalade/HelloWorld/src/MainMenu.h'
p885
(lp886
I1
ag880
assS'e:/Documents/Michiel/Programmeren/Marmalade/HelloWorld/src/HelloWorld.cpp'
p887
(lp888
I1
ag880
asssS'files'
p889
(dp890
S'dlfcn.h'
p891
g294
(cmkb_main
File
p892
g296
Ntp893
Rp894
(dp895
S'flags'
p896
(dp897
sS'group'
p898
(lp899
S"'Marmalade System (S3E)'"
p900
aS'stdc headers'
p901
asg320
S'c:/marmalade/7.4/s3e/h/std/dlfcn.h'
p902
sbsS'iterator'
p903
g294
(g892
g296
Ntp904
Rp905
(dp906
g896
g897
sg898
(lp907
g900
aS'stdc headers'
p908
aS'c++'
p909
asg320
S'c:/marmalade/7.4/s3e/h/std/c++/iterator'
p910
sbsS'math_rvct.h'
p911
g294
(g892
g296
Ntp912
Rp913
(dp914
g896
g897
sg898
g899
sg320
S'c:/marmalade/7.4/s3e/h/std/math_rvct.h'
p915
sbsS'pthread_alloc'
p916
g294
(g892
g296
Ntp917
Rp918
(dp919
g896
g897
sg898
g907
sg320
S'c:/marmalade/7.4/s3e/h/std/c++/pthread_alloc'
p920
sbsS'ctype.h'
p921
g294
(g892
g296
Ntp922
Rp923
(dp924
g896
g897
sg898
g899
sg320
S'c:/marmalade/7.4/s3e/h/std/ctype.h'
p925
sbsS'ctime'
p926
g294
(g892
g296
Ntp927
Rp928
(dp929
g896
g897
sg898
g907
sg320
S'c:/marmalade/7.4/s3e/h/std/c++/ctime'
p930
sbsS's3e.h'
p931
g294
(g892
g296
Ntp932
Rp933
(dp934
g896
g897
sg898
(lp935
g900
asg320
S'c:/marmalade/7.4/s3e/h/s3e.h'
p936
sbsS'errno.h'
p937
g294
(g892
g296
Ntp938
Rp939
(dp940
g896
g897
sg898
g899
sg320
S'c:/marmalade/7.4/s3e/h/std/errno.h'
p941
sbsS's3ePointer.h'
p942
g294
(g892
g296
Ntp943
Rp944
(dp945
g896
g897
sg898
g935
sg320
S'c:/marmalade/7.4/s3e/h/s3ePointer.h'
p946
sbsS's3eImagePicker.h'
p947
g294
(g892
g296
Ntp948
Rp949
(dp950
g896
g897
sg898
(lp951
g900
aS'Extensions'
p952
asg320
S'c:/marmalade/7.4/s3e/h/ext/s3eImagePicker.h'
p953
sbsS'typeinfo'
p954
g294
(g892
g296
Ntp955
Rp956
(dp957
g896
g897
sg898
g907
sg320
S'c:/marmalade/7.4/s3e/h/std/c++/typeinfo'
p958
sbsS'fstream.h'
p959
g294
(g892
g296
Ntp960
Rp961
(dp962
g896
g897
sg898
g907
sg320
S'c:/marmalade/7.4/s3e/h/std/c++/fstream.h'
p963
sbsS'cfloat'
p964
g294
(g892
g296
Ntp965
Rp966
(dp967
g896
g897
sg898
g907
sg320
S'c:/marmalade/7.4/s3e/h/std/c++/cfloat'
p968
sbsS'stdio_streambuf'
p969
g294
(g892
g296
Ntp970
Rp971
(dp972
g896
g897
sg898
g907
sg320
S'c:/marmalade/7.4/s3e/h/std/c++/stdio_streambuf'
p973
sbsS'MainMenu.cpp'
p974
g294
(g892
g296
Ntp975
Rp976
(dp977
g896
g880
sg898
(lp978
g876
ag881
asg320
g883
sbsS'wctype.h'
p979
g294
(g892
g296
Ntp980
Rp981
(dp982
g896
g897
sg898
g899
sg320
S'c:/marmalade/7.4/s3e/h/std/wctype.h'
p983
sbsS'sched.h'
p984
g294
(g892
g296
Ntp985
Rp986
(dp987
g896
g897
sg898
g899
sg320
S'c:/marmalade/7.4/s3e/h/std/sched.h'
p988
sbsS'valarray'
p989
g294
(g892
g296
Ntp990
Rp991
(dp992
g896
g897
sg898
g907
sg320
S'c:/marmalade/7.4/s3e/h/std/c++/valarray'
p993
sbsS'cassert'
p994
g294
(g892
g296
Ntp995
Rp996
(dp997
g896
g897
sg898
g907
sg320
S'c:/marmalade/7.4/s3e/h/std/c++/cassert'
p998
sbsS'grp.h'
p999
g294
(g892
g296
Ntp1000
Rp1001
(dp1002
g896
g897
sg898
g899
sg320
S'c:/marmalade/7.4/s3e/h/std/grp.h'
p1003
sbsS'complex'
p1004
g294
(g892
g296
Ntp1005
Rp1006
(dp1007
g896
g897
sg898
g907
sg320
S'c:/marmalade/7.4/s3e/h/std/c++/complex'
p1008
sbsS'istream'
p1009
g294
(g892
g296
Ntp1010
Rp1011
(dp1012
g896
g897
sg898
g907
sg320
S'c:/marmalade/7.4/s3e/h/std/c++/istream'
p1013
sbsS'poll.h'
p1014
g294
(g892
g296
Ntp1015
Rp1016
(dp1017
g896
g897
sg898
g899
sg320
S'c:/marmalade/7.4/s3e/h/std/poll.h'
p1018
sbsS's3eAccelerometer.h'
p1019
g294
(g892
g296
Ntp1020
Rp1021
(dp1022
g896
g897
sg898
g935
sg320
S'c:/marmalade/7.4/s3e/h/s3eAccelerometer.h'
p1023
sbsS'iostream.h'
p1024
g294
(g892
g296
Ntp1025
Rp1026
(dp1027
g896
g897
sg898
g907
sg320
S'c:/marmalade/7.4/s3e/h/std/c++/iostream.h'
p1028
sbsS'setjmp.h'
p1029
g294
(g892
g296
Ntp1030
Rp1031
(dp1032
g896
g897
sg898
g899
sg320
S'c:/marmalade/7.4/s3e/h/std/setjmp.h'
p1033
sbsS'cstddef'
p1034
g294
(g892
g296
Ntp1035
Rp1036
(dp1037
g896
g897
sg898
g907
sg320
S'c:/marmalade/7.4/s3e/h/std/c++/cstddef'
p1038
sbsS'string'
p1039
g294
(g892
g296
Ntp1040
Rp1041
(dp1042
g896
g897
sg898
g907
sg320
S'c:/marmalade/7.4/s3e/h/std/c++/string'
p1043
sbsS'mman.h'
p1044
g294
(g892
g296
Ntp1045
Rp1046
(dp1047
g896
g897
sg898
(lp1048
g900
aS'stdc headers'
p1049
aS'sys'
p1050
asg320
S'c:/marmalade/7.4/s3e/h/std/sys/mman.h'
p1051
sbsS'Main.cpp'
p1052
g294
(g892
g296
Ntp1053
Rp1054
(dp1055
g896
g880
sg898
(lp1056
S'Source'
p1057
asg320
g878
sbsS'libgen.h'
p1058
g294
(g892
g296
Ntp1059
Rp1060
(dp1061
g896
g897
sg898
g899
sg320
S'c:/marmalade/7.4/s3e/h/std/libgen.h'
p1062
sbsS'utsname.h'
p1063
g294
(g892
g296
Ntp1064
Rp1065
(dp1066
g896
g897
sg898
g1048
sg320
S'c:/marmalade/7.4/s3e/h/std/sys/utsname.h'
p1067
sbsS'wait.h'
p1068
g294
(g892
g296
Ntp1069
Rp1070
(dp1071
g896
g897
sg898
g1048
sg320
S'c:/marmalade/7.4/s3e/h/std/sys/wait.h'
p1072
sbsS'iomanip'
p1073
g294
(g892
g296
Ntp1074
Rp1075
(dp1076
g896
g897
sg898
g907
sg320
S'c:/marmalade/7.4/s3e/h/std/c++/iomanip'
p1077
sbsS'istream.h'
p1078
g294
(g892
g296
Ntp1079
Rp1080
(dp1081
g896
g897
sg898
g907
sg320
S'c:/marmalade/7.4/s3e/h/std/c++/istream.h'
p1082
sbsS'cwchar'
p1083
g294
(g892
g296
Ntp1084
Rp1085
(dp1086
g896
g897
sg898
g907
sg320
S'c:/marmalade/7.4/s3e/h/std/c++/cwchar'
p1087
sbsS'stdint.h'
p1088
g294
(g892
g296
Ntp1089
Rp1090
(dp1091
g896
g897
sg898
g899
sg320
S'c:/marmalade/7.4/s3e/h/std/stdint.h'
p1092
sbsS'semaphore.h'
p1093
g294
(g892
g296
Ntp1094
Rp1095
(dp1096
g896
g897
sg898
g899
sg320
S'c:/marmalade/7.4/s3e/h/std/semaphore.h'
p1097
sbsS'iosfwd'
p1098
g294
(g892
g296
Ntp1099
Rp1100
(dp1101
g896
g897
sg898
g907
sg320
S'c:/marmalade/7.4/s3e/h/std/c++/iosfwd'
p1102
sbsS'gl2.h'
p1103
g294
(g892
g296
Ntp1104
Rp1105
(dp1106
g896
g897
sg898
(lp1107
g900
aS'GL'
p1108
aS'GLES 2.0'
p1109
asg320
S'c:/marmalade/7.4/s3e/h/GLES2/gl2.h'
p1110
sbsS'assert.h'
p1111
g294
(g892
g296
Ntp1112
Rp1113
(dp1114
g896
g897
sg898
g899
sg320
S'c:/marmalade/7.4/s3e/h/std/assert.h'
p1115
sbsS'param.h'
p1116
g294
(g892
g296
Ntp1117
Rp1118
(dp1119
g896
g897
sg898
g1048
sg320
S'c:/marmalade/7.4/s3e/h/std/sys/param.h'
p1120
sbsS'dir.h'
p1121
g294
(g892
g296
Ntp1122
Rp1123
(dp1124
g896
g897
sg898
g1048
sg320
S'c:/marmalade/7.4/s3e/h/std/sys/dir.h'
p1125
sbsS'locale.h'
p1126
g294
(g892
g296
Ntp1127
Rp1128
(dp1129
g896
g897
sg898
g899
sg320
S'c:/marmalade/7.4/s3e/h/std/locale.h'
p1130
sbsS'vector'
p1131
g294
(g892
g296
Ntp1132
Rp1133
(dp1134
g896
g897
sg898
g907
sg320
S'c:/marmalade/7.4/s3e/h/std/c++/vector'
p1135
sbsS'ostream'
p1136
g294
(g892
g296
Ntp1137
Rp1138
(dp1139
g896
g897
sg898
g907
sg320
S'c:/marmalade/7.4/s3e/h/std/c++/ostream'
p1140
sbsS'termios.h'
p1141
g294
(g892
g296
Ntp1142
Rp1143
(dp1144
g896
g897
sg898
g899
sg320
S'c:/marmalade/7.4/s3e/h/std/termios.h'
p1145
sbsS'cwctype'
p1146
g294
(g892
g296
Ntp1147
Rp1148
(dp1149
g896
g897
sg898
g907
sg320
S'c:/marmalade/7.4/s3e/h/std/c++/cwctype'
p1150
sbsS'streambuf.h'
p1151
g294
(g892
g296
Ntp1152
Rp1153
(dp1154
g896
g897
sg898
g907
sg320
S'c:/marmalade/7.4/s3e/h/std/c++/streambuf.h'
p1155
sbsS'stdiostream.h'
p1156
g294
(g892
g296
Ntp1157
Rp1158
(dp1159
g896
g897
sg898
g907
sg320
S'c:/marmalade/7.4/s3e/h/std/c++/stdiostream.h'
p1160
sbsS'sstream'
p1161
g294
(g892
g296
Ntp1162
Rp1163
(dp1164
g896
g897
sg898
g907
sg320
S'c:/marmalade/7.4/s3e/h/std/c++/sstream'
p1165
sbsS'mem.h'
p1166
g294
(g892
g296
Ntp1167
Rp1168
(dp1169
g896
g897
sg898
g907
sg320
S'c:/marmalade/7.4/s3e/h/std/c++/mem.h'
p1170
sbsS'slist'
p1171
g294
(g892
g296
Ntp1172
Rp1173
(dp1174
g896
g897
sg898
g907
sg320
S'c:/marmalade/7.4/s3e/h/std/c++/slist'
p1175
sbsS's3eCompass.h'
p1176
g294
(g892
g296
Ntp1177
Rp1178
(dp1179
g896
g897
sg898
g935
sg320
S'c:/marmalade/7.4/s3e/h/s3eCompass.h'
p1180
sbsS'prctl.h'
p1181
g294
(g892
g296
Ntp1182
Rp1183
(dp1184
g896
g897
sg898
g1048
sg320
S'c:/marmalade/7.4/s3e/h/std/sys/prctl.h'
p1185
sbsS'locale'
p1186
g294
(g892
g296
Ntp1187
Rp1188
(dp1189
g896
g897
sg898
g907
sg320
S'c:/marmalade/7.4/s3e/h/std/c++/locale'
p1190
sbsS'list'
p1191
g294
(g892
g296
Ntp1192
Rp1193
(dp1194
g896
g897
sg898
g907
sg320
S'c:/marmalade/7.4/s3e/h/std/c++/list'
p1195
sbsS'climits'
p1196
g294
(g892
g296
Ntp1197
Rp1198
(dp1199
g896
g897
sg898
g907
sg320
S'c:/marmalade/7.4/s3e/h/std/c++/climits'
p1200
sbsS's3e.config.txt'
p1201
g294
(g892
g296
Ntp1202
Rp1203
(dp1204
g896
g897
sg898
g935
sg320
S'c:/marmalade/7.4/s3e/s3e.config.txt'
p1205
sbsS'numeric'
p1206
g294
(g892
g296
Ntp1207
Rp1208
(dp1209
g896
g897
sg898
g907
sg320
S'c:/marmalade/7.4/s3e/h/std/c++/numeric'
p1210
sbsS'utime.h'
p1211
g294
(g892
g296
Ntp1212
Rp1213
(dp1214
g896
g897
sg898
g899
sg320
S'c:/marmalade/7.4/s3e/h/std/utime.h'
p1215
sbsS'cstdio'
p1216
g294
(g892
g296
Ntp1217
Rp1218
(dp1219
g896
g897
sg898
g907
sg320
S'c:/marmalade/7.4/s3e/h/std/c++/cstdio'
p1220
sbsS's3eVibra.h'
p1221
g294
(g892
g296
Ntp1222
Rp1223
(dp1224
g896
g897
sg898
g935
sg320
S'c:/marmalade/7.4/s3e/h/s3eVibra.h'
p1225
sbsS'fnmatch.h'
p1226
g294
(g892
g296
Ntp1227
Rp1228
(dp1229
g896
g897
sg898
g899
sg320
S'c:/marmalade/7.4/s3e/h/std/fnmatch.h'
p1230
sbsS'stack'
p1231
g294
(g892
g296
Ntp1232
Rp1233
(dp1234
g896
g897
sg898
g907
sg320
S'c:/marmalade/7.4/s3e/h/std/c++/stack'
p1235
sbsS'strings.h'
p1236
g294
(g892
g296
Ntp1237
Rp1238
(dp1239
g896
g897
sg898
g899
sg320
S'c:/marmalade/7.4/s3e/h/std/strings.h'
p1240
sbsS'inttypes.h'
p1241
g294
(g892
g296
Ntp1242
Rp1243
(dp1244
g896
g897
sg898
g899
sg320
S'c:/marmalade/7.4/s3e/h/std/inttypes.h'
p1245
sbsS'HelloWorld.cpp'
p1246
g294
(g892
g296
Ntp1247
Rp1248
(dp1249
g896
g880
sg898
g1056
sg320
g887
sbsS'dirent.h'
p1250
g294
(g892
g296
Ntp1251
Rp1252
(dp1253
g896
g897
sg898
g899
sg320
S'c:/marmalade/7.4/s3e/h/std/dirent.h'
p1254
sbsS's3eExt.h'
p1255
g294
(g892
g296
Ntp1256
Rp1257
(dp1258
g896
g897
sg898
g935
sg320
S'c:/marmalade/7.4/s3e/h/s3eExt.h'
p1259
sbsS's3eSurface.h'
p1260
g294
(g892
g296
Ntp1261
Rp1262
(dp1263
g896
g897
sg898
g935
sg320
S'c:/marmalade/7.4/s3e/h/s3eSurface.h'
p1264
sbsS'new'
p1265
g294
(g892
g296
Ntp1266
Rp1267
(dp1268
g896
g897
sg898
g907
sg320
S'c:/marmalade/7.4/s3e/h/std/c++/new'
p1269
sbsS'stdlib.h'
p1270
g294
(g892
g296
Ntp1271
Rp1272
(dp1273
g896
g897
sg898
g899
sg320
S'c:/marmalade/7.4/s3e/h/std/stdlib.h'
p1274
sbsS'utility'
p1275
g294
(g892
g296
Ntp1276
Rp1277
(dp1278
g896
g897
sg898
g907
sg320
S'c:/marmalade/7.4/s3e/h/std/c++/utility'
p1279
sbsS'stddef.h'
p1280
g294
(g892
g296
Ntp1281
Rp1282
(dp1283
g896
g897
sg898
g899
sg320
S'c:/marmalade/7.4/s3e/h/std/stddef.h'
p1284
sbsS's3eWindow.h'
p1285
g294
(g892
g296
Ntp1286
Rp1287
(dp1288
g896
g897
sg898
g951
sg320
S'c:/marmalade/7.4/s3e/h/ext/s3eWindow.h'
p1289
sbsS's3eMetrics.h'
p1290
g294
(g892
g296
Ntp1291
Rp1292
(dp1293
g896
g897
sg898
g951
sg320
S'c:/marmalade/7.4/s3e/h/ext/s3eMetrics.h'
p1294
sbsS'iostream'
p1295
g294
(g892
g296
Ntp1296
Rp1297
(dp1298
g896
g897
sg898
g907
sg320
S'c:/marmalade/7.4/s3e/h/std/c++/iostream'
p1299
sbsS'glplatform.h'
p1300
g294
(g892
g296
Ntp1301
Rp1302
(dp1303
g896
g897
sg898
(lp1304
g900
aS'GL'
p1305
aS'GLES 1.x'
p1306
asg320
S'c:/marmalade/7.4/s3e/h/GLES/glplatform.h'
p1307
sbsS'app.icf'
p1308
g294
(g892
g296
Ntp1309
Rp1310
(dp1311
g896
(dp1312
sg898
g4
sg320
S'e:/Documents/Michiel/Programmeren/Marmalade/HelloWorld/data/app.icf'
p1313
sbsS'ucontext.h'
p1314
g294
(g892
g296
Ntp1315
Rp1316
(dp1317
g896
g897
sg898
g899
sg320
S'c:/marmalade/7.4/s3e/h/std/ucontext.h'
p1318
sbsS'setjmp_win32.h'
p1319
g294
(g892
g296
Ntp1320
Rp1321
(dp1322
g896
g897
sg898
g899
sg320
S'c:/marmalade/7.4/s3e/h/std/setjmp_win32.h'
p1323
sbsS's3eOSExec.h'
p1324
g294
(g892
g296
Ntp1325
Rp1326
(dp1327
g896
g897
sg898
g951
sg320
S'c:/marmalade/7.4/s3e/h/ext/s3eOSExec.h'
p1328
sbsS'string.h'
p1329
g294
(g892
g296
Ntp1330
Rp1331
(dp1332
g896
g897
sg898
g899
sg320
S'c:/marmalade/7.4/s3e/h/std/string.h'
p1333
sbsS'alloca.h'
p1334
g294
(g892
g296
Ntp1335
Rp1336
(dp1337
g896
g897
sg898
g899
sg320
S'c:/marmalade/7.4/s3e/h/std/alloca.h'
p1338
sbsS'float.h'
p1339
g294
(g892
g296
Ntp1340
Rp1341
(dp1342
g896
g897
sg898
g899
sg320
S'c:/marmalade/7.4/s3e/h/std/float.h'
p1343
sbsS'iomanip.h'
p1344
g294
(g892
g296
Ntp1345
Rp1346
(dp1347
g896
g897
sg898
g907
sg320
S'c:/marmalade/7.4/s3e/h/std/c++/iomanip.h'
p1348
sbsS'limits'
p1349
g294
(g892
g296
Ntp1350
Rp1351
(dp1352
g896
g897
sg898
g907
sg320
S'c:/marmalade/7.4/s3e/h/std/c++/limits'
p1353
sbsS'gl2platform.h'
p1354
g294
(g892
g296
Ntp1355
Rp1356
(dp1357
g896
g897
sg898
g1107
sg320
S'c:/marmalade/7.4/s3e/h/GLES2/gl2platform.h'
p1358
sbsS'queue'
p1359
g294
(g892
g296
Ntp1360
Rp1361
(dp1362
g896
g897
sg898
g907
sg320
S'c:/marmalade/7.4/s3e/h/std/c++/queue'
p1363
sbsS's3eSecureStorage.h'
p1364
g294
(g892
g296
Ntp1365
Rp1366
(dp1367
g896
g897
sg898
g935
sg320
S'c:/marmalade/7.4/s3e/h/s3eSecureStorage.h'
p1368
sbsS'time_1.h'
p1369
g294
(g892
g296
Ntp1370
Rp1371
(dp1372
g896
g897
sg898
g1048
sg320
S'c:/marmalade/7.4/s3e/h/std/sys/time.h'
p1373
sbsS's3eLicense.h'
p1374
g294
(g892
g296
Ntp1375
Rp1376
(dp1377
g896
g897
sg898
g935
sg320
S'c:/marmalade/7.4/s3e/h/s3eLicense.h'
p1378
sbsS'fstream'
p1379
g294
(g892
g296
Ntp1380
Rp1381
(dp1382
g896
g897
sg898
g907
sg320
S'c:/marmalade/7.4/s3e/h/std/c++/fstream'
p1383
sbsS's3eCameraCapture.h'
p1384
g294
(g892
g296
Ntp1385
Rp1386
(dp1387
g896
g897
sg898
g951
sg320
S'c:/marmalade/7.4/s3e/h/ext/s3eCameraCapture.h'
p1388
sbsS'eglext.h'
p1389
g294
(g892
g296
Ntp1390
Rp1391
(dp1392
g896
g897
sg898
(lp1393
g900
aS'GL'
p1394
aS'EGL'
p1395
asg320
S'c:/marmalade/7.4/s3e/h/EGL/eglext.h'
p1396
sbsS'bitset'
p1397
g294
(g892
g296
Ntp1398
Rp1399
(dp1400
g896
g897
sg898
g907
sg320
S'c:/marmalade/7.4/s3e/h/std/c++/bitset'
p1401
sbsS'sendfile.h'
p1402
g294
(g892
g296
Ntp1403
Rp1404
(dp1405
g896
g897
sg898
g1048
sg320
S'c:/marmalade/7.4/s3e/h/std/sys/sendfile.h'
p1406
sbsS's3eTimer.h'
p1407
g294
(g892
g296
Ntp1408
Rp1409
(dp1410
g896
g897
sg898
g935
sg320
S'c:/marmalade/7.4/s3e/h/s3eTimer.h'
p1411
sbsS'socket.h'
p1412
g294
(g892
g296
Ntp1413
Rp1414
(dp1415
g896
g897
sg898
g1048
sg320
S'c:/marmalade/7.4/s3e/h/std/sys/socket.h'
p1416
sbsS'streambuf'
p1417
g294
(g892
g296
Ntp1418
Rp1419
(dp1420
g896
g897
sg898
g907
sg320
S'c:/marmalade/7.4/s3e/h/std/c++/streambuf'
p1421
sbsS'malloc.h'
p1422
g294
(g892
g296
Ntp1423
Rp1424
(dp1425
g896
g897
sg898
g899
sg320
S'c:/marmalade/7.4/s3e/h/std/malloc.h'
p1426
sbsS'signal_1.h'
p1427
g294
(g892
g296
Ntp1428
Rp1429
(dp1430
g896
g897
sg898
g1048
sg320
S'c:/marmalade/7.4/s3e/h/std/sys/signal.h'
p1431
sbsS'cstdarg'
p1432
g294
(g892
g296
Ntp1433
Rp1434
(dp1435
g896
g897
sg898
g907
sg320
S'c:/marmalade/7.4/s3e/h/std/c++/cstdarg'
p1436
sbsS'stdarg.h'
p1437
g294
(g892
g296
Ntp1438
Rp1439
(dp1440
g896
g897
sg898
g899
sg320
S'c:/marmalade/7.4/s3e/h/std/stdarg.h'
p1441
sbsS'strstream.h'
p1442
g294
(g892
g296
Ntp1443
Rp1444
(dp1445
g896
g897
sg898
g907
sg320
S'c:/marmalade/7.4/s3e/h/std/c++/strstream.h'
p1446
sbsS'shm.h'
p1447
g294
(g892
g296
Ntp1448
Rp1449
(dp1450
g896
g897
sg898
g1048
sg320
S'c:/marmalade/7.4/s3e/h/std/sys/shm.h'
p1451
sbsS'set'
p1452
g294
(g892
g296
Ntp1453
Rp1454
(dp1455
g896
g897
sg898
g907
sg320
S'c:/marmalade/7.4/s3e/h/std/c++/set'
p1456
sbsS'endian.h'
p1457
g294
(g892
g296
Ntp1458
Rp1459
(dp1460
g896
g897
sg898
g899
sg320
S'c:/marmalade/7.4/s3e/h/std/endian.h'
p1461
sbsS'gl2ext.h'
p1462
g294
(g892
g296
Ntp1463
Rp1464
(dp1465
g896
g897
sg898
g1107
sg320
S'c:/marmalade/7.4/s3e/h/GLES2/gl2ext.h'
p1466
sbsS'un.h'
p1467
g294
(g892
g296
Ntp1468
Rp1469
(dp1470
g896
g897
sg898
g1048
sg320
S'c:/marmalade/7.4/s3e/h/std/sys/un.h'
p1471
sbsS'temp_defines_debug.h'
p1472
g294
(g892
g296
Ntp1473
Rp1474
(dp1475
g896
(lp1476
sg898
(lp1477
S"'generated files'"
p1478
asg320
S'e:/Documents/Michiel/Programmeren/Marmalade/HelloWorld/build_helloworld_vc12x/temp_defines_debug.h'
p1479
sbsS'gl3ext.h'
p1480
g294
(g892
g296
Ntp1481
Rp1482
(dp1483
g896
g897
sg898
(lp1484
g900
aS'GL'
p1485
aS'GLES 3.0'
p1486
asg320
S'c:/marmalade/7.4/s3e/h/GLES3/gl3ext.h'
p1487
sbsS's3eSound.h'
p1488
g294
(g892
g296
Ntp1489
Rp1490
(dp1491
g896
g897
sg898
g935
sg320
S'c:/marmalade/7.4/s3e/h/s3eSound.h'
p1492
sbsS'glob.h'
p1493
g294
(g892
g296
Ntp1494
Rp1495
(dp1496
g896
g897
sg898
g899
sg320
S'c:/marmalade/7.4/s3e/h/std/glob.h'
p1497
sbsS'file.h'
p1498
g294
(g892
g296
Ntp1499
Rp1500
(dp1501
g896
g897
sg898
g1048
sg320
S'c:/marmalade/7.4/s3e/h/std/sys/file.h'
p1502
sbsS's3eIOSBackgroundAudio.h'
p1503
g294
(g892
g296
Ntp1504
Rp1505
(dp1506
g896
g897
sg898
g951
sg320
S'c:/marmalade/7.4/s3e/h/ext/s3eIOSBackgroundAudio.h'
p1507
sbsS'cstring'
p1508
g294
(g892
g296
Ntp1509
Rp1510
(dp1511
g896
g897
sg898
g907
sg320
S'c:/marmalade/7.4/s3e/h/std/c++/cstring'
p1512
sbsS'cerrno'
p1513
g294
(g892
g296
Ntp1514
Rp1515
(dp1516
g896
g897
sg898
g907
sg320
S'c:/marmalade/7.4/s3e/h/std/c++/cerrno'
p1517
sbsS'exception.h'
p1518
g294
(g892
g296
Ntp1519
Rp1520
(dp1521
g896
g897
sg898
g907
sg320
S'c:/marmalade/7.4/s3e/h/std/c++/exception.h'
p1522
sbsS's3eCamera.h'
p1523
g294
(g892
g296
Ntp1524
Rp1525
(dp1526
g896
g897
sg898
g935
sg320
S'c:/marmalade/7.4/s3e/h/s3eCamera.h'
p1527
sbsS'clocale'
p1528
g294
(g892
g296
Ntp1529
Rp1530
(dp1531
g896
g897
sg898
g907
sg320
S'c:/marmalade/7.4/s3e/h/std/c++/clocale'
p1532
sbsS'memory'
p1533
g294
(g892
g296
Ntp1534
Rp1535
(dp1536
g896
g897
sg898
g907
sg320
S'c:/marmalade/7.4/s3e/h/std/c++/memory'
p1537
sbsS'egl.h'
p1538
g294
(g892
g296
Ntp1539
Rp1540
(dp1541
g896
g897
sg898
g1393
sg320
S'c:/marmalade/7.4/s3e/h/EGL/egl.h'
p1542
sbsS'egl_1.h'
p1543
g294
(g892
g296
Ntp1544
Rp1545
(dp1546
g896
g897
sg898
g1304
sg320
S'c:/marmalade/7.4/s3e/h/GLES/egl.h'
p1547
sbsS'deque'
p1548
g294
(g892
g296
Ntp1549
Rp1550
(dp1551
g896
g897
sg898
g907
sg320
S'c:/marmalade/7.4/s3e/h/std/c++/deque'
p1552
sbsS'gl.h'
p1553
g294
(g892
g296
Ntp1554
Rp1555
(dp1556
g896
g897
sg898
g1304
sg320
S'c:/marmalade/7.4/s3e/h/GLES/gl.h'
p1557
sbsS's3eCrypto.h'
p1558
g294
(g892
g296
Ntp1559
Rp1560
(dp1561
g896
g897
sg898
g935
sg320
S'c:/marmalade/7.4/s3e/h/s3eCrypto.h'
p1562
sbsS's3eKeyboard.h'
p1563
g294
(g892
g296
Ntp1564
Rp1565
(dp1566
g896
g897
sg898
g935
sg320
S'c:/marmalade/7.4/s3e/h/s3eKeyboard.h'
p1567
sbsS's3eSMS.h'
p1568
g294
(g892
g296
Ntp1569
Rp1570
(dp1571
g896
g897
sg898
g951
sg320
S'c:/marmalade/7.4/s3e/h/ext/s3eSMS.h'
p1572
sbsS'cctype'
p1573
g294
(g892
g296
Ntp1574
Rp1575
(dp1576
g896
g897
sg898
g907
sg320
S'c:/marmalade/7.4/s3e/h/std/c++/cctype'
p1577
sbsS'limits.h'
p1578
g294
(g892
g296
Ntp1579
Rp1580
(dp1581
g896
g897
sg898
g899
sg320
S'c:/marmalade/7.4/s3e/h/std/limits.h'
p1582
sbsS'fcntl.h'
p1583
g294
(g892
g296
Ntp1584
Rp1585
(dp1586
g896
g897
sg898
g899
sg320
S'c:/marmalade/7.4/s3e/h/std/fcntl.h'
p1587
sbsS'sigcontext.h'
p1588
g294
(g892
g296
Ntp1589
Rp1590
(dp1591
g896
g897
sg898
g899
sg320
S'c:/marmalade/7.4/s3e/h/std/sigcontext.h'
p1592
sbsS'csignal'
p1593
g294
(g892
g296
Ntp1594
Rp1595
(dp1596
g896
g897
sg898
g907
sg320
S'c:/marmalade/7.4/s3e/h/std/c++/csignal'
p1597
sbsS'types.h'
p1598
g294
(g892
g296
Ntp1599
Rp1600
(dp1601
g896
g897
sg898
g1048
sg320
S'c:/marmalade/7.4/s3e/h/std/sys/types.h'
p1602
sbsS'pthread_types.h'
p1603
g294
(g892
g296
Ntp1604
Rp1605
(dp1606
g896
g897
sg898
g899
sg320
S'c:/marmalade/7.4/s3e/h/std/pthread_types.h'
p1607
sbsS'ifaddrs.h'
p1608
g294
(g892
g296
Ntp1609
Rp1610
(dp1611
g896
g897
sg898
g899
sg320
S'c:/marmalade/7.4/s3e/h/std/ifaddrs.h'
p1612
sbsS'MainMenu.h'
p1613
g294
(g892
g296
Ntp1614
Rp1615
(dp1616
g896
g880
sg898
g978
sg320
g885
sbsS'memory.h'
p1617
g294
(g892
g296
Ntp1618
Rp1619
(dp1620
g896
g897
sg898
g899
sg320
S'c:/marmalade/7.4/s3e/h/std/memory.h'
p1621
sbsS'getopt.h'
p1622
g294
(g892
g296
Ntp1623
Rp1624
(dp1625
g896
g897
sg898
g899
sg320
S'c:/marmalade/7.4/s3e/h/std/getopt.h'
p1626
sbsS'strstream'
p1627
g294
(g892
g296
Ntp1628
Rp1629
(dp1630
g896
g897
sg898
g907
sg320
S'c:/marmalade/7.4/s3e/h/std/c++/strstream'
p1631
sbsS'times.h'
p1632
g294
(g892
g296
Ntp1633
Rp1634
(dp1635
g896
g897
sg898
g1048
sg320
S'c:/marmalade/7.4/s3e/h/std/sys/times.h'
p1636
sbsS'exception'
p1637
g294
(g892
g296
Ntp1638
Rp1639
(dp1640
g896
g897
sg898
g907
sg320
S'c:/marmalade/7.4/s3e/h/std/c++/exception'
p1641
sbsS'pthread.h'
p1642
g294
(g892
g296
Ntp1643
Rp1644
(dp1645
g896
g897
sg898
g899
sg320
S'c:/marmalade/7.4/s3e/h/std/pthread.h'
p1646
sbsS'algorithm'
p1647
g294
(g892
g296
Ntp1648
Rp1649
(dp1650
g896
g897
sg898
g907
sg320
S'c:/marmalade/7.4/s3e/h/std/c++/algorithm'
p1651
sbsS'rlocks.h'
p1652
g294
(g892
g296
Ntp1653
Rp1654
(dp1655
g896
g897
sg898
g907
sg320
S'c:/marmalade/7.4/s3e/h/std/c++/rlocks.h'
p1656
sbsS'functional'
p1657
g294
(g892
g296
Ntp1658
Rp1659
(dp1660
g896
g897
sg898
g907
sg320
S'c:/marmalade/7.4/s3e/h/std/c++/functional'
p1661
sbsS'ioctl.h'
p1662
g294
(g892
g296
Ntp1663
Rp1664
(dp1665
g896
g897
sg898
g1048
sg320
S'c:/marmalade/7.4/s3e/h/std/sys/ioctl.h'
p1666
sbsS'rope'
p1667
g294
(g892
g296
Ntp1668
Rp1669
(dp1670
g896
g897
sg898
g907
sg320
S'c:/marmalade/7.4/s3e/h/std/c++/rope'
p1671
sbsS's3eHash.h'
p1672
g294
(g892
g296
Ntp1673
Rp1674
(dp1675
g896
g897
sg898
g935
sg320
S'c:/marmalade/7.4/s3e/h/s3eHash.h'
p1676
sbsS'ostream.h'
p1677
g294
(g892
g296
Ntp1678
Rp1679
(dp1680
g896
g897
sg898
g907
sg320
S'c:/marmalade/7.4/s3e/h/std/c++/ostream.h'
p1681
sbsS's3eSocket.h'
p1682
g294
(g892
g296
Ntp1683
Rp1684
(dp1685
g896
g897
sg898
g935
sg320
S'c:/marmalade/7.4/s3e/h/s3eSocket.h'
p1686
sbsS'unistd.h'
p1687
g294
(g892
g296
Ntp1688
Rp1689
(dp1690
g896
g897
sg898
g899
sg320
S'c:/marmalade/7.4/s3e/h/std/unistd.h'
p1691
sbsS'iconv.h'
p1692
g294
(g892
g296
Ntp1693
Rp1694
(dp1695
g896
g897
sg898
g899
sg320
S'c:/marmalade/7.4/s3e/h/std/iconv.h'
p1696
sbsS'ipc.h'
p1697
g294
(g892
g296
Ntp1698
Rp1699
(dp1700
g896
g897
sg898
g1048
sg320
S'c:/marmalade/7.4/s3e/h/std/sys/ipc.h'
p1701
sbsS's3eDevice.h'
p1702
g294
(g892
g296
Ntp1703
Rp1704
(dp1705
g896
g897
sg898
g935
sg320
S'c:/marmalade/7.4/s3e/h/s3eDevice.h'
p1706
sbsS'poll_1.h'
p1707
g294
(g892
g296
Ntp1708
Rp1709
(dp1710
g896
g897
sg898
g1048
sg320
S'c:/marmalade/7.4/s3e/h/std/sys/poll.h'
p1711
sbsS's3eThread.h'
p1712
g294
(g892
g296
Ntp1713
Rp1714
(dp1715
g896
g897
sg898
g935
sg320
S'c:/marmalade/7.4/s3e/h/s3eThread.h'
p1716
sbsS'stl_user_config.h'
p1717
g294
(g892
g296
Ntp1718
Rp1719
(dp1720
g896
g897
sg898
g907
sg320
S'c:/marmalade/7.4/s3e/h/std/c++/stl_user_config.h'
p1721
sbsS's3eCompression.h'
p1722
g294
(g892
g296
Ntp1723
Rp1724
(dp1725
g896
g897
sg898
g935
sg320
S'c:/marmalade/7.4/s3e/h/s3eCompression.h'
p1726
sbsS'langinfo.h'
p1727
g294
(g892
g296
Ntp1728
Rp1729
(dp1730
g896
g897
sg898
g899
sg320
S'c:/marmalade/7.4/s3e/h/std/langinfo.h'
p1731
sbsS's3edebugHeap.h'
p1732
g294
(g892
g296
Ntp1733
Rp1734
(dp1735
g896
g897
sg898
g951
sg320
S'c:/marmalade/7.4/s3e/h/ext/s3edebugHeap.h'
p1736
sbsS'time.h'
p1737
g294
(g892
g296
Ntp1738
Rp1739
(dp1740
g896
g897
sg898
g899
sg320
S'c:/marmalade/7.4/s3e/h/std/time.h'
p1741
sbsS'AirplayVersion.h'
p1742
g294
(g892
g296
Ntp1743
Rp1744
(dp1745
g896
g897
sg898
g935
sg320
S'c:/marmalade/7.4/s3e/h/AirplayVersion.h'
p1746
sbsS'stdexcept'
p1747
g294
(g892
g296
Ntp1748
Rp1749
(dp1750
g896
g897
sg898
g907
sg320
S'c:/marmalade/7.4/s3e/h/std/c++/stdexcept'
p1751
sbsS's3eSoundRecord.h'
p1752
g294
(g892
g296
Ntp1753
Rp1754
(dp1755
g896
g897
sg898
g935
sg320
S'c:/marmalade/7.4/s3e/h/s3eSoundRecord.h'
p1756
sbsS'gl2extimg.h'
p1757
g294
(g892
g296
Ntp1758
Rp1759
(dp1760
g896
g897
sg898
g1107
sg320
S'c:/marmalade/7.4/s3e/h/GLES2/gl2extimg.h'
p1761
sbsS's3eConfig.h'
p1762
g294
(g892
g296
Ntp1763
Rp1764
(dp1765
g896
g897
sg898
g935
sg320
S'c:/marmalade/7.4/s3e/h/s3eConfig.h'
p1766
sbsS'app.config.txt'
p1767
g294
(g892
g296
Ntp1768
Rp1769
(dp1770
g896
(dp1771
sg898
g4
sg320
S'e:/Documents/Michiel/Programmeren/Marmalade/HelloWorld/data/app.config.txt'
p1772
sbsS'stat.h'
p1773
g294
(g892
g296
Ntp1774
Rp1775
(dp1776
g896
g897
sg898
g1048
sg320
S'c:/marmalade/7.4/s3e/h/std/sys/stat.h'
p1777
sbsS's3eVersion.h'
p1778
g294
(g892
g296
Ntp1779
Rp1780
(dp1781
g896
g897
sg898
g935
sg320
S'c:/marmalade/7.4/s3e/h/s3eVersion.h'
p1782
sbsS'MarmaladeVersion.h'
p1783
g294
(g892
g296
Ntp1784
Rp1785
(dp1786
g896
g897
sg898
g935
sg320
S'c:/marmalade/7.4/s3e/h/MarmaladeVersion.h'
p1787
sbsS'syslog.h'
p1788
g294
(g892
g296
Ntp1789
Rp1790
(dp1791
g896
g897
sg898
g899
sg320
S'c:/marmalade/7.4/s3e/h/std/syslog.h'
p1792
sbsS'gl3platform.h'
p1793
g294
(g892
g296
Ntp1794
Rp1795
(dp1796
g896
g897
sg898
g1484
sg320
S'c:/marmalade/7.4/s3e/h/GLES3/gl3platform.h'
p1797
sbsS'byteswap.h'
p1798
g294
(g892
g296
Ntp1799
Rp1800
(dp1801
g896
g897
sg898
g899
sg320
S'c:/marmalade/7.4/s3e/h/std/byteswap.h'
p1802
sbsS'ios.h'
p1803
g294
(g892
g296
Ntp1804
Rp1805
(dp1806
g896
g897
sg898
g907
sg320
S'c:/marmalade/7.4/s3e/h/std/c++/ios.h'
p1807
sbsS'hash_map'
p1808
g294
(g892
g296
Ntp1809
Rp1810
(dp1811
g896
g897
sg898
g907
sg320
S'c:/marmalade/7.4/s3e/h/std/c++/hash_map'
p1812
sbsS'pthread_1.h'
p1813
g294
(g892
g296
Ntp1814
Rp1815
(dp1816
g896
g897
sg898
g907
sg320
S'c:/marmalade/7.4/s3e/h/std/c++/pthread.h'
p1817
sbsS's3e.mkf'
p1818
g294
(g892
g296
Ntp1819
Rp1820
(dp1821
g896
(dp1822
sg898
g935
sg320
S'c:/marmalade/7.4/s3e/s3e.mkf'
p1823
sbsS'hash_set'
p1824
g294
(g892
g296
Ntp1825
Rp1826
(dp1827
g896
g897
sg898
g907
sg320
S'c:/marmalade/7.4/s3e/h/std/c++/hash_set'
p1828
sbsS's3eTypes.h'
p1829
g294
(g892
g296
Ntp1830
Rp1831
(dp1832
g896
g897
sg898
g935
sg320
S'c:/marmalade/7.4/s3e/h/s3eTypes.h'
p1833
sbsS's3eContacts.h'
p1834
g294
(g892
g296
Ntp1835
Rp1836
(dp1837
g896
g897
sg898
g935
sg320
S'c:/marmalade/7.4/s3e/h/s3eContacts.h'
p1838
sbsS's3eOSReadString.h'
p1839
g294
(g892
g296
Ntp1840
Rp1841
(dp1842
g896
g897
sg898
g951
sg320
S'c:/marmalade/7.4/s3e/h/ext/s3eOSReadString.h'
p1843
sbsS'eglplatform.h'
p1844
g294
(g892
g296
Ntp1845
Rp1846
(dp1847
g896
g897
sg898
g1393
sg320
S'c:/marmalade/7.4/s3e/h/EGL/eglplatform.h'
p1848
sbsS'signal_2.h'
p1849
g294
(g892
g296
Ntp1850
Rp1851
(dp1852
g896
g897
sg898
g907
sg320
S'c:/marmalade/7.4/s3e/h/std/c++/signal.h'
p1853
sbsS'stdbool.h'
p1854
g294
(g892
g296
Ntp1855
Rp1856
(dp1857
g896
g897
sg898
g899
sg320
S'c:/marmalade/7.4/s3e/h/std/stdbool.h'
p1858
sbsS's3e.icf'
p1859
g294
(g892
g296
Ntp1860
Rp1861
(dp1862
g896
g897
sg898
g935
sg320
S'c:/marmalade/7.4/s3e/s3e.icf'
p1863
sbsS'math_gcc.h'
p1864
g294
(g892
g296
Ntp1865
Rp1866
(dp1867
g896
g897
sg898
g899
sg320
S'c:/marmalade/7.4/s3e/h/std/math_gcc.h'
p1868
sbsS's3eMemory.h'
p1869
g294
(g892
g296
Ntp1870
Rp1871
(dp1872
g896
g897
sg898
g935
sg320
S'c:/marmalade/7.4/s3e/h/s3eMemory.h'
p1873
sbsS'map'
p1874
g294
(g892
g296
Ntp1875
Rp1876
(dp1877
g896
g897
sg898
g907
sg320
S'c:/marmalade/7.4/s3e/h/std/c++/map'
p1878
sbsS'sem.h'
p1879
g294
(g892
g296
Ntp1880
Rp1881
(dp1882
g896
g897
sg898
g1048
sg320
S'c:/marmalade/7.4/s3e/h/std/sys/sem.h'
p1883
sbsS'wchar.h'
p1884
g294
(g892
g296
Ntp1885
Rp1886
(dp1887
g896
g897
sg898
g899
sg320
S'c:/marmalade/7.4/s3e/h/std/wchar.h'
p1888
sbsS'stdio.h'
p1889
g294
(g892
g296
Ntp1890
Rp1891
(dp1892
g896
g897
sg898
g899
sg320
S'c:/marmalade/7.4/s3e/h/std/stdio.h'
p1893
sbsS's3eFile.h'
p1894
g294
(g892
g296
Ntp1895
Rp1896
(dp1897
g896
g897
sg898
g935
sg320
S'c:/marmalade/7.4/s3e/h/s3eFile.h'
p1898
sbsS'type_traits.h'
p1899
g294
(g892
g296
Ntp1900
Rp1901
(dp1902
g896
g897
sg898
g907
sg320
S'c:/marmalade/7.4/s3e/h/std/c++/type_traits.h'
p1903
sbsS'ios'
p1904
g294
(g892
g296
Ntp1905
Rp1906
(dp1907
g896
g897
sg898
g907
sg320
S'c:/marmalade/7.4/s3e/h/std/c++/ios'
p1908
sbsS'msl_string.h'
p1909
g294
(g892
g296
Ntp1910
Rp1911
(dp1912
g896
g897
sg898
g907
sg320
S'c:/marmalade/7.4/s3e/h/std/c++/msl_string.h'
p1913
sbsS'select.h'
p1914
g294
(g892
g296
Ntp1915
Rp1916
(dp1917
g896
g897
sg898
g1048
sg320
S'c:/marmalade/7.4/s3e/h/std/sys/select.h'
p1918
sbsS's3eAudio.h'
p1919
g294
(g892
g296
Ntp1920
Rp1921
(dp1922
g896
g897
sg898
g935
sg320
S'c:/marmalade/7.4/s3e/h/s3eAudio.h'
p1923
sbsS'cstdlib'
p1924
g294
(g892
g296
Ntp1925
Rp1926
(dp1927
g896
g897
sg898
g907
sg320
S'c:/marmalade/7.4/s3e/h/std/c++/cstdlib'
p1928
sbsS's3eLocation.h'
p1929
g294
(g892
g296
Ntp1930
Rp1931
(dp1932
g896
g897
sg898
g935
sg320
S'c:/marmalade/7.4/s3e/h/s3eLocation.h'
p1933
sbsS'resource.h'
p1934
g294
(g892
g296
Ntp1935
Rp1936
(dp1937
g896
g897
sg898
g1048
sg320
S'c:/marmalade/7.4/s3e/h/std/sys/resource.h'
p1938
sbsS'cmath'
p1939
g294
(g892
g296
Ntp1940
Rp1941
(dp1942
g896
g897
sg898
g907
sg320
S'c:/marmalade/7.4/s3e/h/std/c++/cmath'
p1943
sbsS'signal.h'
p1944
g294
(g892
g296
Ntp1945
Rp1946
(dp1947
g896
g897
sg898
g899
sg320
S'c:/marmalade/7.4/s3e/h/std/signal.h'
p1948
sbsS'csetjmp'
p1949
g294
(g892
g296
Ntp1950
Rp1951
(dp1952
g896
g897
sg898
g907
sg320
S'c:/marmalade/7.4/s3e/h/std/c++/csetjmp'
p1953
sbsS's3eLibrary.h'
p1954
g294
(g892
g296
Ntp1955
Rp1956
(dp1957
g896
g897
sg898
g951
sg320
S'c:/marmalade/7.4/s3e/h/ext/s3eLibrary.h'
p1958
sbsS'netdb.h'
p1959
g294
(g892
g296
Ntp1960
Rp1961
(dp1962
g896
g897
sg898
g899
sg320
S'c:/marmalade/7.4/s3e/h/std/netdb.h'
p1963
sbsS's3eAndroidJNI.h'
p1964
g294
(g892
g296
Ntp1965
Rp1966
(dp1967
g896
g897
sg898
g951
sg320
S'c:/marmalade/7.4/s3e/h/ext/s3eAndroidJNI.h'
p1968
sbsS'new.h'
p1969
g294
(g892
g296
Ntp1970
Rp1971
(dp1972
g896
g897
sg898
g907
sg320
S'c:/marmalade/7.4/s3e/h/std/c++/new.h'
p1973
sbsS'math.h'
p1974
g294
(g892
g296
Ntp1975
Rp1976
(dp1977
g896
g897
sg898
g899
sg320
S'c:/marmalade/7.4/s3e/h/std/math.h'
p1978
sbsS's3eClipboard.h'
p1979
g294
(g892
g296
Ntp1980
Rp1981
(dp1982
g896
g897
sg898
g935
sg320
S'c:/marmalade/7.4/s3e/h/s3eClipboard.h'
p1983
sbsS's3eGL.h'
p1984
g294
(g892
g296
Ntp1985
Rp1986
(dp1987
g896
g897
sg898
g935
sg320
S'c:/marmalade/7.4/s3e/h/s3eGL.h'
p1988
sbsS's3eDebug.h'
p1989
g294
(g892
g296
Ntp1990
Rp1991
(dp1992
g896
g897
sg898
g935
sg320
S'c:/marmalade/7.4/s3e/h/s3eDebug.h'
p1993
sbsS's3eEMail.h'
p1994
g294
(g892
g296
Ntp1995
Rp1996
(dp1997
g896
g897
sg898
g951
sg320
S'c:/marmalade/7.4/s3e/h/ext/s3eEMail.h'
p1998
sbsS'uio.h'
p1999
g294
(g892
g296
Ntp2000
Rp2001
(dp2002
g896
g897
sg898
g1048
sg320
S'c:/marmalade/7.4/s3e/h/std/sys/uio.h'
p2003
sbsS'glext.h'
p2004
g294
(g892
g296
Ntp2005
Rp2006
(dp2007
g896
g897
sg898
g1304
sg320
S'c:/marmalade/7.4/s3e/h/GLES/glext.h'
p2008
sbsS's3eVideo.h'
p2009
g294
(g892
g296
Ntp2010
Rp2011
(dp2012
g896
g897
sg898
g935
sg320
S'c:/marmalade/7.4/s3e/h/s3eVideo.h'
p2013
sbsS'pwd.h'
p2014
g294
(g892
g296
Ntp2015
Rp2016
(dp2017
g896
g897
sg898
g899
sg320
S'c:/marmalade/7.4/s3e/h/std/pwd.h'
p2018
sbsS'typeinfo.h'
p2019
g294
(g892
g296
Ntp2020
Rp2021
(dp2022
g896
g897
sg898
g907
sg320
S'c:/marmalade/7.4/s3e/h/std/c++/typeinfo.h'
p2023
sbsS'temp_defines_release.h'
p2024
g294
(g892
g296
Ntp2025
Rp2026
(dp2027
g896
(lp2028
sg898
(lp2029
g1478
asg320
S'e:/Documents/Michiel/Programmeren/Marmalade/HelloWorld/build_helloworld_vc12x/temp_defines_release.h'
p2030
sbsS'gl3.h'
p2031
g294
(g892
g296
Ntp2032
Rp2033
(dp2034
g896
g897
sg898
g1484
sg320
S'c:/marmalade/7.4/s3e/h/GLES3/gl3.h'
p2035
sbssS'juice_build_type'
p2036
g4
sS'tests'
p2037
(lp2038
sS'project_name'
p2039
g302
sS'root_file'
p2040
g120
sS'current_root'
p2041
S'e:/Documents/Michiel/Programmeren/Marmalade/HelloWorld'
p2042
sS'dependencies'
p2043
(lp2044
sS'include_paths'
p2045
(lp2046
S'c:/marmalade/7.4/s3e/h'
p2047
aS'c:/marmalade/7.4/s3e/h/ext'
p2048
aS'c:/marmalade/7.4/s3e/h/std'
p2049
aS'c:/marmalade/7.4/s3e/h/std/c++'
p2050
aS'c:/marmalade/7.4/s3e/h/ext_legacy'
p2051
aS'c:/marmalade/7.4/s3e/h/legacy'
p2052
asS'weak_frameworks'
p2053
(lp2054
sS'extprojects'
p2055
(dp2056
sg420
(dp2057
g414
(lp2058
(g77
S'.'
p2059
I0
tp2060
assS'macro_types'
p2061
(dp2062
g396
I0
sg397
I0
sg398
I0
sg399
I0
sg400
I0
sg401
I0
sg402
I0
sg404
I0
sg405
I0
sg407
I01
ssS'commands'
p2063
(lp2064
sg422
(g869
S'VC12X'
p2065
S'X86ARM'
p2066
tp2067
sS'build_libs'
p2068
(dp2069
sg424
g0
sS'frameworks'
p2070
(lp2071
sS'environ'
p2072
(dp2073
sS'target_name_debug'
p2074
g302
sS'builders'
p2075
(dp2076
g414
(dp2077
S'.S'
p2078
(dp2079
S'rvct'
p2080
(lp2081
S'.obj'
p2082
aS'echo ARM Assembling(RVCT) ${SOURCE}...'
p2083
aS'c:/marmalade/7.4/s3e\\rvct\\bin\\armasm -o ${TARGET} ${SOURCE}'
p2084
asg367
(lp2085
g2082
aS'echo ARM Assembling(GCC) ${SOURCE}...'
p2086
aS'c:/marmalade/7.4/s3e\\gcc\\bin\\arm-none-eabi-gcc -c -o ${TARGET} ${SOURCE}'
p2087
asS'ppu'
p2088
(lp2089
S'.a'
p2090
aS'echo PPU Assembling(SNC) ${SOURCE}...'
p2091
aS'c:/marmalade/7.4/s3e\\rvct\\bin\\armasm -o ${TARGET} ${SOURCE}'
p2092
assS'.s'
p2093
g2079
sssS'extproject_names'
p2094
(lp2095
sbtp2096
.