((dp0
S'arm_dbg_args'
p1
S'-via:"e:\\Documents\\Michiel\\Programmeren\\Marmalade\\HelloWorld\\build_helloworld_vc12x\\HelloWorld_vc12x_arm_debug.via" -qemu'
p2
sS'game-icf'
p3
S''
p4
sS'dist'
p5
NsS'csproj'
p6
g4
sS'module_path_append'
p7
NsS'global_path'
p8
S'e:\\documents\\michiel\\programmeren\\marmalade'
p9
sS'system_path'
p10
S'c:\\marmalade\\7.4\\s3e\\makefile_builder'
p11
sS'android_x86_dbg_args'
p12
S'../../tools/DeployTool/DeployTool.exe --dir "e:\\Documents\\Michiel\\Programmeren\\Marmalade\\HelloWorld\\build_helloworld_vc12x"'
p13
sS'no-emit'
p14
NsS'arm-float-abi'
p15
g4
sS'arm_rel_rtsm_args'
p16
S'-via:"e:\\Documents\\Michiel\\Programmeren\\Marmalade\\HelloWorld\\build_helloworld_vc12x\\HelloWorld_vc12x_arm_release.via" -qemu'
p17
sS'amd64'
p18
NsS'line-width'
p19
I80
sS'gcc_dbg_args'
p20
S'-via:"e:\\Documents\\Michiel\\Programmeren\\Marmalade\\HelloWorld\\build_helloworld_vc12x\\HelloWorld_vc12x_gcc_debug.via" -qemu'
p21
sS'android-x86'
p22
NsS'x86_dbg_exe'
p23
S'c:/marmalade/7.4/s3e\\win32\\s3e_simulator_debug.exe'
p24
sS'disable-runtime-checks'
p25
NsS'release'
p26
NsS'no-make'
p27
NsS'xcode-x86-build-settings'
p28
g4
sS'optimise-size'
p29
NsS'output-name-debug'
p30
g4
sS'arm-fpu'
p31
g4
sS'proj_name'
p32
S'HelloWorld_vc12x'
p33
sS'enable-stdinc'
p34
NsS'compiler'
p35
g4
sS'execute'
p36
NsS'compile-static'
p37
NsS'msvc-project'
p38
NsS'buildenv'
p39
S'VC12X'
p40
sS'quick'
p41
NsS'module_path'
p42
NsS'use-release-std-libs'
p43
NsS'using_perforce'
p44
I00
sS'tizen-x86'
p45
NsS'mips-s3e'
p46
NsS's3e-api-lib-name'
p47
g4
sS'ios-no-pic'
p48
NsS'shared-arm-lib'
p49
NsS'arm-cpu'
p50
g4
sS'compile-thumb'
p51
NsS'no-ide'
p52
NsS'msvc-version'
p53
S'6.0'
p54
sS'arm'
p55
NsS'builddir'
p56
g4
sS'compile-debug-as-release'
p57
I0
sS'arm-arch'
p58
g4
sS'brief'
p59
NsS'dll'
p60
NsS'buildenv-toolset'
p61
g4
sS'version'
p62
NsS'ccache'
p63
I0
sS'offline'
p64
NsS'ios-version'
p65
g4
sS'hub_data'
p66
g4
sS'fake_vc_call'
p67
I01
sS'jobs'
p68
I0
sS'linkflags'
p69
NsS'debug'
p70
NsS'xcode-build-order'
p71
g4
sS'gcc_rel_rtsm_args'
p72
S'-via:"e:\\Documents\\Michiel\\Programmeren\\Marmalade\\HelloWorld\\build_helloworld_vc12x\\HelloWorld_vc12x_gcc_release.via" -qemu'
p73
sS'done_defaults'
p74
I1
sS'path'
p75
NsS's3e-data-dir'
p76
S'e:/Documents/Michiel/Programmeren/Marmalade/HelloWorld\\data'
p77
sS'enable-exceptions'
p78
NsS'osx-dll'
p79
NsS'extension'
p80
g4
sS'no-vc6'
p81
NsS'non-interactive'
p82
NsS'win32-console'
p83
NsS'dist-format'
p84
g4
sS's3e-force-arch'
p85
NsS'dump_defines'
p86
NsS'use_prebuilt'
p87
NsS'gcc-version'
p88
g4
sS'x86_dbg_args'
p89
S'-via:"e:\\Documents\\Michiel\\Programmeren\\Marmalade\\HelloWorld\\build_helloworld_vc12x\\HelloWorld_vc12x_debug.via"'
p90
sS'tizen_x86_dbg_args'
p91
g13
sS'arm-debugger'
p92
g4
sS'use_temp_extension'
p93
NsS'verbose'
p94
I0
sS'log'
p95
NsS'no-strip'
p96
NsS'rebuild'
p97
NsS'win32-simulator-dll'
p98
NsS'strict'
p99
NsS'mips_dbg_args'
p100
g13
sS'enable-global-path'
p101
NsS'cflags'
p102
NsS'dist-dir'
p103
g4
sS'xcode-arm-build-settings'
p104
g4
sS'jflags'
p105
NsS'csprojSDKRefs'
p106
g4
sS'tizen_x86_rel_exe'
p107
S'c:\\marmalade\\7.4\\s3e\\makefile_builder\\tool_launcher.exe'
p108
sS'test-assets'
p109
S'Default'
p110
sS'distcc'
p111
NsS'external-compiler'
p112
NsS'no-distcc'
p113
NsS'preinclude'
p114
NsS'using_sdk'
p115
I01
sS'nologo'
p116
NsS'warn-level'
p117
I2
sS'mips_dbg_exe'
p118
g108
sS'mkb_in'
p119
S'e:/Documents/Michiel/Programmeren/Marmalade/HelloWorld/HelloWorld.mkb'
p120
sS'tizen_x86_dbg_exe'
p121
g108
sS'arm_dbg_exe'
p122
S'c:/marmalade/7.4/s3e\\bin\\armdebug.exe'
p123
sS'csprojDLLRef'
p124
NsS'tizen_x86_rel_args'
p125
g13
sS'android_x86_dbg_exe'
p126
g108
sS'test-config'
p127
g4
sS'list-targets'
p128
NsS'arm_rel_exe'
p129
g108
sS'arm_rel_args'
p130
g13
sS'makedeps'
p131
NsS'android_x86_rel_exe'
p132
g108
sS'default-buildenv'
p133
S'VC12X'
p134
sS'x86_rel_exe'
p135
g24
sS'preprocess-java'
p136
NsS'mips_rel_args'
p137
g13
sS'defines'
p138
NsS'lib'
p139
NsS'global_argv'
p140
(lp141
S'C:\\Marmalade\\7.4\\s3e\\makefile_builder\\mkb.py'
p142
aS'E:/Documents/Michiel/Programmeren/Marmalade/HelloWorld/HelloWorld.mkb'
p143
aS'--buildenv=VC12X'
p144
aS'--test-assets'
p145
ag110
aS'--fake-vc-call'
p146
asS'make'
p147
NsS'optimise-speed'
p148
NsS'internal'
p149
NsS'rvct-version'
p150
g4
sS'deploy-only'
p151
NsS'x86'
p152
NsS'deploy'
p153
g4
sS'x86_run_exe'
p154
S'c:/marmalade/7.4/s3e\\win32\\s3e_console.exe'
p155
sS'x86_rel_args'
p156
S'-via:"e:\\Documents\\Michiel\\Programmeren\\Marmalade\\HelloWorld\\build_helloworld_vc12x\\HelloWorld_vc12x_release.via"'
p157
sS'gcc_rel_args'
p158
g13
sS'mips'
p159
NsS'xcode-build-settings'
p160
g4
sS'incredibuild'
p161
NsS'strict-compile'
p162
NsS'use-auto-subdirs'
p163
NsS'mips_rel_exe'
p164
g108
sS'android_x86_rel_args'
p165
g13
sS'app-icf'
p166
g4
sS'deployargs'
p167
NsS'iosnativedebug'
p168
NsS'mkf_in'
p169
(lp170
sS'strict-mkb'
p171
NsS'executeargs'
p172
NsS'clean'
p173
NsS'no-asm'
p174
NsS'output-name'
p175
g4
sS'no-modules'
p176
NsS'find_define'
p177
g4
s(dp178
S'c:\\marmalade\\7.4\\s3e\\makefile_builder\\plugins\\Emitter.pyc'
p179
F1409106506.0
sS'c:\\marmalade\\7.4\\s3e\\makefile_builder\\templates\\ws8_ext_sln.pyc'
p180
F1409106508.0
sS'c:\\marmalade\\7.4\\s3e\\makefile_builder\\templates\\MainWindow.xib'
p181
F1409103204.0
sS'c:\\marmalade\\7.4\\s3e\\makefile_builder\\templates\\template.suo'
p182
F1409103204.0
sS'c:\\marmalade\\7.4\\s3e\\makefile_builder\\plugins\\xcode4_schememanagement.py'
p183
F1409103204.0
sS'c:\\marmalade\\7.4\\s3e\\makefile_builder\\templates\\ws81_sln.pyc'
p184
F1409106508.0
sS'c:\\marmalade\\7.4\\s3e\\makefile_builder\\templates\\win8_ext_csproj.pyc'
p185
F1409106508.0
sS'c:\\marmalade\\7.4\\s3e\\makefile_builder\\mkb_option.pyc'
p186
F1409106506.0
sS'c:\\marmalade\\7.4\\s3e\\makefile_builder\\plugins\\s3e_xcode.py'
p187
F1409103204.0
sS'c:\\marmalade\\7.4\\s3e\\makefile_builder\\plugins\\s3e_scons.pyc'
p188
F1409106506.0
sS'c:\\marmalade\\7.4\\s3e\\makefile_builder\\templates\\win8_vcxproj.pyc'
p189
F1409106508.0
sS'c:\\marmalade\\7.4\\s3e\\makefile_builder\\plugins\\null.pyc'
p190
F1409106506.0
sS'c:\\marmalade\\7.4\\s3e\\makefile_builder\\templates\\vc8_user.pyc'
p191
F1409106506.0
sS'c:\\marmalade\\7.4\\s3e\\makefile_builder\\templates\\wp81_ext_sln.pyc'
p192
F1409106508.0
sS'c:\\marmalade\\7.4\\s3e\\makefile_builder\\templates\\scons.pyc'
p193
F1409106506.0
sS'c:\\marmalade\\7.4\\s3e\\makefile_builder\\templates\\wp8_ext_csproj.pyc'
p194
F1409106508.0
sS'c:\\marmalade\\7.4\\s3e\\makefile_builder\\templates\\xcode_pbxuser.py'
p195
F1409103204.0
sS'c:\\marmalade\\7.4\\s3e\\makefile_builder\\plugins\\s3e_qmake.py'
p196
F1409103204.0
sS'c:\\marmalade\\7.4\\s3e\\makefile_builder\\plugins\\iphone.pyc'
p197
F1409106506.0
sS'c:\\marmalade\\7.4\\s3e\\makefile_builder\\templates\\ws81_ext_csproj.pyc'
p198
F1409106508.0
sS'c:\\marmalade\\7.4\\s3e\\makefile_builder\\templates\\vc6_opt.pyc'
p199
F1409106506.0
sS'c:\\marmalade\\7.4\\s3e\\makefile_builder\\plugins\\s3e_win8.pyc'
p200
F1409106506.0
sS'c:\\marmalade\\7.4\\s3e\\makefile_builder\\mkb_main.pyc'
p201
F1409106506.0
sS'c:\\marmalade\\7.4\\s3e\\makefile_builder\\templates\\wp8_csproj.pyc'
p202
F1409106508.0
sS'c:\\marmalade\\7.4\\s3e\\makefile_builder\\templates\\win32_vcproj.pyc'
p203
F1409106506.0
sS'c:\\marmalade\\7.4\\s3e\\makefile_builder\\templates\\win8_sln.pyc'
p204
F1409106508.0
sS'c:\\marmalade\\7.4\\s3e\\makefile_builder\\mkb_launcher.exe'
p205
F1409103760.0
sS'c:\\marmalade\\7.4\\s3e\\makefile_builder\\plugins\\osx_xcode.pyc'
p206
F1409106506.0
sS'c:\\marmalade\\7.4\\s3e\\makefile_builder\\plugins'
p207
F1409999850.4932125
sS'c:\\marmalade\\7.4\\s3e\\makefile_builder\\templates\\wp8_csproj_user.pyc'
p208
F1409106508.0
sS'c:\\marmalade\\7.4\\s3e\\makefile_builder\\plugins\\win32_vc6.pyc'
p209
F1409106506.0
sS'c:\\marmalade\\7.4\\s3e\\makefile_builder\\plugins\\s3e_vc6.pyc'
p210
F1409106506.0
sS'c:\\marmalade\\7.4\\s3e\\makefile_builder\\templates\\vc10_user.pyc'
p211
F1409106506.0
sS'c:\\marmalade\\7.4\\s3e\\makefile_builder\\docs\\deprecated.defines.txt'
p212
F1409103204.0
sS'c:\\marmalade\\7.4\\s3e\\makefile_builder\\templates\\wp81_csproj_user.pyc'
p213
F1409106508.0
sS'c:\\marmalade\\7.4\\s3e\\makefile_builder\\templates\\ws81_ext_sln.pyc'
p214
F1409106508.0
sS'c:\\marmalade\\7.4\\s3e\\makefile_builder\\templates\\make.py'
p215
F1409103204.0
sS'c:\\marmalade\\7.4\\s3e\\makefile_builder\\plugins\\wp81_wp81.pyc'
p216
F1409106506.0
sS'c:\\marmalade\\7.4\\s3e\\makefile_builder\\plugins\\s3e_qmake.pyc'
p217
F1409999850.3654675
sS'c:\\marmalade\\7.4\\s3e\\makefile_builder\\templates\\mips_linker_script'
p218
F1409103204.0
sS'c:\\marmalade\\7.4\\s3e\\makefile_builder\\plugins\\deploy.pyc'
p219
F1409106506.0
sS'c:\\marmalade\\7.4\\s3e\\makefile_builder\\plugins\\ws81_ws81.pyc'
p220
F1409106506.0
sS'c:\\marmalade\\7.4\\s3e\\makefile_builder\\mkb.py'
p221
F1409103204.0
sS'c:\\marmalade\\7.4\\s3e\\makefile_builder\\docs\\options.txt'
p222
F1409103204.0
sS'c:\\marmalade\\7.4\\s3e\\makefile_builder\\mkb_parser.pyc'
p223
F1409106506.0
sS'c:\\marmalade\\7.4\\s3e\\makefile_builder\\templates\\qmake_user.py'
p224
F1409103204.0
sS'c:\\marmalade\\7.4\\s3e\\makefile_builder\\docs\\mkb.defines.txt'
p225
F1409103204.0
sS'c:\\marmalade\\7.4\\s3e\\makefile_builder\\deployment.pyc'
p226
F1409106506.0
sS'c:\\marmalade\\7.4\\s3e\\makefile_builder\\plugins\\wp8_wp8.pyc'
p227
F1409106506.0
sS'c:\\marmalade\\7.4\\s3e\\makefile_builder\\plugins\\linux_scons.pyc'
p228
F1409106506.0
sS'c:\\marmalade\\7.4\\s3e\\makefile_builder\\plugins\\s3e_web.pyc'
p229
F1409106506.0
sS'c:\\marmalade\\7.4\\s3e\\makefile_builder\\plugins\\S3EEmitter.pyc'
p230
F1409106506.0
sS'c:\\marmalade\\7.4\\s3e\\makefile_builder\\plugins\\Win8Emitter.pyc'
p231
F1409106506.0
sS'c:\\marmalade\\7.4\\s3e\\makefile_builder\\templates\\xcode4_arm.xcscheme'
p232
F1409103204.0
sS'c:\\marmalade\\7.4\\s3e\\makefile_builder\\plugins\\vc6_utils.pyc'
p233
F1409106506.0
sS'c:\\marmalade\\7.4\\s3e\\makefile_builder\\templates\\wp8_vcxproj.pyc'
p234
F1409106508.0
sS'c:\\marmalade\\7.4\\s3e\\makefile_builder\\templates\\xcode4.xcscheme'
p235
F1409103204.0
sS'c:\\marmalade\\7.4\\s3e\\makefile_builder\\plugins\\MakeEmitter.pyc'
p236
F1409106506.0
sS'c:\\marmalade\\7.4\\s3e\\makefile_builder\\plugins\\java.pyc'
p237
F1409106506.0
sS'c:\\marmalade\\7.4\\s3e\\makefile_builder\\plugins\\XcodeEmitter.pyc'
p238
F1409999849.8433163
sS'c:\\marmalade\\7.4\\s3e\\makefile_builder\\plugins\\XcodeEmitter.py'
p239
F1409103204.0
sS'c:\\marmalade\\7.4\\s3e\\makefile_builder\\mkb_globals.pyc'
p240
F1409106506.0
sS'c:\\marmalade\\7.4\\s3e\\makefile_builder\\tool_launcher.exe'
p241
F1409103760.0
sS'c:\\marmalade\\7.4\\s3e\\makefile_builder\\mkb_util.pyc'
p242
F1409106506.0
sS'c:\\marmalade\\7.4\\s3e\\makefile_builder\\plugins\\xcode4_schememanagement.pyc'
p243
F1409999849.8780317
sS'c:\\marmalade\\7.4\\s3e\\makefile_builder\\templates\\ws8_sln.pyc'
p244
F1409106508.0
sS'c:\\marmalade\\7.4\\s3e\\makefile_builder\\templates\\win32_sln.pyc'
p245
F1409106506.0
sS'c:\\marmalade\\7.4\\s3e\\makefile_builder\\templates\\wp81_ext_csproj.pyc'
p246
F1409106508.0
sS'c:\\marmalade\\7.4\\s3e\\makefile_builder\\plugins\\s3e_wp81.pyc'
p247
F1409106506.0
sS'c:\\marmalade\\7.4\\s3e\\makefile_builder\\plugins\\s3e_wp8.pyc'
p248
F1409106506.0
sS'c:\\marmalade\\7.4\\s3e\\makefile_builder\\templates\\qmake.py'
p249
F1409103204.0
sS'c:\\marmalade\\7.4\\s3e\\makefile_builder\\templates\\gdb_start.txt'
p250
F1409103204.0
sS'c:\\marmalade\\7.4\\s3e\\makefile_builder\\templates'
p251
F1409998163.6808057
sS'c:\\marmalade\\7.4\\s3e\\makefile_builder\\templates\\ws8_ext_csproj.pyc'
p252
F1409106508.0
sS'c:\\marmalade\\7.4\\s3e\\makefile_builder\\templates\\win8_csproj_user.pyc'
p253
F1409106508.0
sS'c:\\marmalade\\7.4\\s3e\\makefile_builder\\arm-linux-gcc.mkf'
p254
F1410001233.6061296
sS'c:\\marmalade\\7.4\\s3e\\makefile_builder\\templates\\vc7_suo.pyc'
p255
F1409106506.0
sS'c:\\marmalade\\7.4\\s3e\\makefile_builder\\plugins\\VisualStudioEmitter.pyc'
p256
F1409106506.0
sS'c:\\marmalade\\7.4\\s3e\\makefile_builder\\templates\\linker_script'
p257
F1409103204.0
sS'c:\\marmalade\\7.4\\s3e\\makefile_builder\\docs\\deprecated.options.txt'
p258
F1409103204.0
sS'c:\\marmalade\\7.4\\s3e\\makefile_builder\\plugins\\s3e_xcode.pyc'
p259
F1409999850.497215
sS'c:\\marmalade\\7.4\\s3e\\makefile_builder\\plugins\\s3e_ws8.pyc'
p260
F1409106506.0
sS'c:\\marmalade\\7.4\\s3e\\makefile_builder\\templates\\xcode4_DeployTool.xcscheme'
p261
F1409103204.0
sS'c:\\marmalade\\7.4\\s3e\\makefile_builder\\templates\\ws8_csproj_user.pyc'
p262
F1409106508.0
sS'c:\\marmalade\\7.4\\s3e\\makefile_builder\\plugins\\osx_scons.pyc'
p263
F1409106506.0
sS'c:\\marmalade\\7.4\\s3e\\makefile_builder\\templates\\ws81_csproj.pyc'
p264
F1409106508.0
sS'c:\\marmalade\\7.4\\s3e\\makefile_builder\\templates\\wp8_sln.pyc'
p265
F1409106508.0
sS'c:\\marmalade\\7.4\\s3e\\makefile_builder\\docs'
p266
F1409998163.810812
sS'c:\\marmalade\\7.4\\s3e\\makefile_builder\\plugins\\ws8_ws8.pyc'
p267
F1409106506.0
sS'c:\\marmalade\\7.4\\s3e\\makefile_builder\\docs\\deployment_options.txt'
p268
F1409103204.0
sS'c:\\marmalade\\7.4\\s3e\\makefile_builder\\templates\\win32_vcxproj_filters.pyc'
p269
F1409106506.0
sS'c:\\marmalade\\7.4\\s3e\\makefile_builder\\templates\\win32_dsw.pyc'
p270
F1409106506.0
sS'c:\\marmalade\\7.4\\s3e\\makefile_builder\\plugins\\s3e_ws81.pyc'
p271
F1409106506.0
sS'c:\\marmalade\\7.4\\s3e\\makefile_builder\\plugins\\SConsEmitter.pyc'
p272
F1409106506.0
sS'c:\\marmalade\\7.4\\s3e\\makefile_builder\\templates\\wp81_vcxproj.pyc'
p273
F1409106508.0
sS'c:\\marmalade\\7.4\\s3e\\makefile_builder\\plugins\\win8_utils.pyc'
p274
F1409106506.0
sS'c:\\marmalade\\7.4\\s3e\\makefile_builder\\templates\\template.opt'
p275
F1409103204.0
sS'c:\\marmalade\\7.4\\s3e\\makefile_builder\\plugins\\vc7_utils.pyc'
p276
F1409106506.0
sS'c:\\marmalade\\7.4\\s3e\\makefile_builder\\templates\\win32_dsp.pyc'
p277
F1409106506.0
sS'c:\\marmalade\\7.4\\s3e\\makefile_builder\\plugins\\s3e_make.pyc'
p278
F1409106506.0
sS'c:\\marmalade\\7.4\\s3e\\makefile_builder\\templates\\rvct_linker_script'
p279
F1409103204.0
sS'c:\\marmalade\\7.4\\s3e\\makefile_builder\\templates\\win8_csproj.pyc'
p280
F1409106508.0
sS'c:\\marmalade\\7.4\\s3e\\makefile_builder\\templates\\xcode.py'
p281
F1409103204.0
sS'c:\\marmalade\\7.4\\s3e\\makefile_builder\\templates\\ws8_vcxproj.pyc'
p282
F1409106508.0
sS'c:\\marmalade\\7.4\\s3e\\makefile_builder\\templates\\wp81_csproj.pyc'
p283
F1409106508.0
sS'c:\\marmalade\\7.4\\s3e\\makefile_builder\\mkb_upstream.pyc'
p284
F1409106506.0
sS'c:\\marmalade\\7.4\\s3e\\makefile_builder\\templates\\win32_vcxproj.pyc'
p285
F1409106506.0
sS'c:\\marmalade\\7.4\\s3e\\makefile_builder\\templates\\ws8_csproj.pyc'
p286
F1409106508.0
sS'c:\\marmalade\\7.4\\s3e\\makefile_builder\\docs\\parse_options.pyc'
p287
F1409106508.0
sS'c:\\marmalade\\7.4\\s3e\\makefile_builder\\templates\\Info.plist'
p288
F1409103204.0
sS'c:\\marmalade\\7.4\\s3e\\makefile_builder\\templates\\wp81_sln.pyc'
p289
F1409106508.0
sS'c:\\marmalade\\7.4\\s3e\\makefile_builder\\templates\\ws81_csproj_user.pyc'
p290
F1409106508.0
sS'c:\\marmalade\\7.4\\s3e\\makefile_builder\\templates\\ws81_vcxproj.pyc'
p291
F1409106508.0
sccopy_reg
_reconstructor
p292
(cmkb_main
MkbFile
p293
c__builtin__
object
p294
Ntp295
Rp296
(dp297
g5
(lp298
sS'target_name'
p299
S'HelloWorld'
p300
sS'current_file'
p301
g120
sS'package_path'
p302
(lp303
sS'post_build'
p304
(lp305
(lp306
S'c:/marmalade/7.4/s3e/tools'
p307
aS'C:\\Marmalade\\7.4\\s3e\\python\\python.exe .\\process_map.py "$(TargetPath)"'
p308
aa(S'c:\\marmalade\\7.4\\s3e\\bin'
p309
S'"s3e_plink" -l "$(TargetPath)" '
p310
g152
tp311
asS'librarys'
p312
(lp313
g292
(cmkb_main
Library
p314
g294
Ntp315
Rp316
(dp317
S'name'
p318
S'vc6_compat.lib'
p319
sS'expand_name'
p320
I00
sS'include_spec_rvct_objs'
p321
(lp322
sS'include_all_objs'
p323
I00
sS'share_arm'
p324
I00
sS'arch'
p325
S'x86'
p326
sS'nodebug'
p327
I00
sg35
Nsbag292
(g314
g294
Ntp328
Rp329
(dp330
g318
S's3e_cpp'
p331
sg320
I01
sg321
g322
sg323
I00
sg324
I00
sg325
Nsg327
I00
sg35
Nsbag292
(g314
g294
Ntp332
Rp333
(dp334
g318
S's3e'
p335
sg320
I01
sg321
(lp336
S'iwcrt.o'
p337
asg323
I00
sg324
I00
sg325
Nsg327
I00
sg35
Nsbag292
(g314
g294
Ntp338
Rp339
(dp340
g318
S's3e_api'
p341
sg320
I01
sg321
g322
sg323
I00
sg324
I00
sg325
S'x86'
p342
sg327
I01
sg35
Nsbag292
(g314
g294
Ntp343
Rp344
(dp345
g318
g341
sg320
I01
sg321
g322
sg323
I00
sg324
I00
sg325
S'!x86'
p346
sg327
I01
sg35
Nsbag292
(g314
g294
Ntp347
Rp348
(dp349
g318
S'stdc++'
p350
sg320
I00
sg321
g322
sg323
I00
sg324
I00
sg325
S'mips'
p351
sg327
I00
sg35
Nsbag292
(g314
g294
Ntp352
Rp353
(dp354
g318
S'c'
p355
sg320
I00
sg321
g322
sg323
I00
sg324
I00
sg325
S'mips'
p356
sg327
I00
sg35
Nsbag292
(g314
g294
Ntp357
Rp358
(dp359
g318
S'm'
p360
sg320
I00
sg321
g322
sg323
I00
sg324
I00
sg325
S'mips'
p361
sg327
I00
sg35
Nsbag292
(g314
g294
Ntp362
Rp363
(dp364
g318
S'gcc'
p365
sg320
I00
sg321
g322
sg323
I00
sg324
I00
sg325
S'mips'
p366
sg327
I00
sg35
Nsbag292
(g314
g294
Ntp367
Rp368
(dp369
g318
S'stdc++'
p370
sg320
I00
sg321
g322
sg323
I00
sg324
I00
sg325
S'gcc_x86_android'
p371
sg327
I00
sg35
Nsbag292
(g314
g294
Ntp372
Rp373
(dp374
g318
g355
sg320
I00
sg321
g322
sg323
I00
sg324
I00
sg325
S'gcc_x86_android'
p375
sg327
I00
sg35
Nsbag292
(g314
g294
Ntp376
Rp377
(dp378
g318
g360
sg320
I00
sg321
g322
sg323
I00
sg324
I00
sg325
S'gcc_x86_android'
p379
sg327
I00
sg35
Nsbag292
(g314
g294
Ntp380
Rp381
(dp382
g318
g365
sg320
I00
sg321
g322
sg323
I00
sg324
I00
sg325
S'gcc_x86_android'
p383
sg327
I00
sg35
NsbasS'library_paths'
p384
(lp385
g292
(cmkb_main
LibraryPath
p386
g294
Ntp387
Rp388
(dp389
S'expand_path'
p390
I01
sg318
S'c:/marmalade/7.4/s3e'
p391
sbasS'macros'
p392
(dp393
S'IW_PLATFORM_S3E'
p394
NsS'I3D_PLATFORM_S3E'
p395
NsS'S3E_INCLUDE_LEGACY'
p396
NsS'IW_SDK'
p397
NsS'__S3E__'
p398
NsS'_CRT_SECURE_NO_DEPRECATE'
p399
NsS'IW_APP_NAME'
p400
S'"HelloWorld"'
p401
sS'I3D_OS_S3E'
p402
NsS'IW_APP_VERSION'
p403
S'"1.0"'
p404
sS'IW_DEBUG'
p405
NssS'done_warnings'
p406
(dp407
sS'subprojects'
p408
(dp409
sS'deployments'
p410
(dp411
S'Default'
p412
g292
(cdeployment
Deployment
p413
g294
Ntp414
Rp415
(dp416
S'got_version'
p417
I0
sS'assets'
p418
g412
sS'mkb'
p419
g296
sS'target'
p420
Nsg325
(lp421
sS'options'
p422
(dp423
S'iphone-link-lib'
p424
(lp425
sS'game-icf'
p426
NsS'android-tm'
p427
NsS'winmobile-icon32'
p428
NsS'ws8-logo-image150x150'
p429
NsS'wp81-logo-image150x150'
p430
NsS'ws81-product-version'
p431
NsS'osx-ext-dll'
p432
(lp433
sS'iphone-provisioning-profile'
p434
NsS'ws8-splash-screen-image620x300'
p435
NsS'wp81-extra-pri'
p436
(lp437
sS'ws8-ext-capabilities'
p438
(lp439
sS'android-icon-hdpi'
p440
NsS'brew-icon-large'
p441
NsS'iphone-splash-full-orient'
p442
NsS'wp8-tile-fliptemplate-supports-large'
p443
NsS'iphone-show-status-bar'
p444
NsS'roku-requires-mkv'
p445
NsS'long-caption'
p446
NsS'android-pkgname'
p447
NsS'wp81-publisher-display-name'
p448
NsS'blackberry-permissions-read-device-identifying-information'
p449
NsS'ws81-certificate-end-date'
p450
NsS'psp-dlgcontentid'
p451
NsS'iphone-minimum-ios-version'
p452
NsS'target-folder'
p453
NsS'tizen-dist1-CA-path'
p454
NsS'symbian-icon2-format'
p455
NsS'tizen-author-key'
p456
NsS'firefoxos-icon-128X128'
p457
NsS'iphone-region'
p458
NsS'uiq3-icon3-mask'
p459
NsS'brew-encoding'
p460
NsS'android-x86'
p461
NsS'nds-initialcode'
p462
NsS'iphone-persistent-wifi'
p463
NsS'psp-snd0'
p464
NsS'roku-icon-focus-hd'
p465
NsS'winmobile-install-folder'
p466
NsS'android-external-res'
p467
(lp468
sS'ws8-product-version'
p469
NsS'brew-priviledges'
p470
NsS'iphone-icon-ipad-search'
p471
NsS'iphone-icon-ipad'
p472
NsS'roku-hidden'
p473
NsS'psp-titlename'
p474
NsS'wp81-product-version'
p475
NsS'symbian-icon1-mask'
p476
NsS'psp-parentallevel'
p477
NsS'splashscreen-use-all'
p478
NsS'wp8-author'
p479
NsS'symbian-disable-ecompxl'
p480
NsS'splashscreen-auto-onblack'
p481
NsS'win32-ext-dll'
p482
(lp483
sS'iphone-development-key'
p484
NsS'winmobile-icon48'
p485
NsS'android-unsigned'
p486
NsS'osx-appstore-category'
p487
NsS'version-revision'
p488
NsS'roku-icon-focus-sd'
p489
NsS'android-keystore'
p490
NsS'winmobile-png90'
p491
NsS'iphone-icon-ipad-high-res'
p492
NsS'iphone-disable-ipad'
p493
NsS'wp8-product-id'
p494
NsS'ws81-splash-screen-background'
p495
NsS'wp8-ext-capabilities'
p496
(lp497
sS'iphone-ipad-only'
p498
NsS'symbian-icon1-mask-black'
p499
NsS'iphone-nosign'
p500
NsS'iphone-bundle-localisations'
p501
NsS'winmobile-png60'
p502
NsS'blackberry-permissions-access-shared'
p503
NsS'blackberry-author'
p504
NsS'android-icon-xxxhdpi'
p505
NsS'olddeploytoolstyle'
p506
NsS'android_icon_gallery'
p507
NsS'wp81-splash-screen-background'
p508
NsS'winmobile-cab-compress'
p509
NsS'iphone-info-plist'
p510
NsS'ws81-ext-managed-dll'
p511
(lp512
sS'playbook-cskpass'
p513
NsS'ws8-distribution-pfx-password'
p514
NsS'symbian-key'
p515
NsS'app-icf'
p516
NsS'blackberry-storepass'
p517
NsS'wp8-tile-fliptemplate-back-title'
p518
NsS'brew-compress-loader'
p519
NsS'win32-pref-windowposy'
p520
NsS'win32-pref-windowposx'
p521
NsS'roku-requires-audiometadata'
p522
NsS'wp8-exclude-low-mem'
p523
NsS'iphone-icon-ipad-search-high-res'
p524
NsS'iphone-link-libdir'
p525
(lp526
sS'wp81-ext-capabilities'
p527
(lp528
sS'blackberry-permissions-read-geolocation'
p529
NsS'ws81-ext-device-capabilities'
p530
(lp531
sS'tizen-signed'
p532
NsS'android-extra-application-manifest'
p533
(lp534
sS'ws8-ext-native-dll'
p535
(lp536
sS'symbian-icon2-mask'
p537
NsS'iphone-backgroundmode-audio'
p538
NsS'webos-memory'
p539
NsS'android-keypass'
p540
NsS'name'
p541
NsS'uiq3-icon2-format'
p542
NsS'roku-splash-screen-sd'
p543
NsS'auto-derbh'
p544
NsS'roku-icon-side-sd'
p545
NsS'android-external-assets'
p546
(lp547
sS'nds-publicsavedatasize'
p548
NsS'splashscreen'
p549
NsS'brew-mif'
p550
NsS'iphone-icon-settings-high-res'
p551
NsS'android-manifest'
p552
NsS'ws81-splash-screen-image620x300'
p553
NsS'wp81-product-name'
p554
NsS's3e-compression'
p555
NsS'tizen-author-password'
p556
NsS'wp8-tile-fliptemplate-back-content'
p557
NsS'blackberry-extra-descriptor'
p558
(lp559
sS'symbian-icon1'
p560
NsS'symbian-icon2'
p561
NsS'android-extra-styles-file'
p562
NsS'wp81-publisher-id'
p563
NsS'nds-bannertitle-jp'
p564
NsS'wp81-logo-image44x44'
p565
NsS'osx-sign-for-store'
p566
NsS'symbian7-uid'
p567
NsS'wp8-tile-fliptemplate-large-back-content'
p568
NsS'wp81-phone-publisher-id'
p569
NsS'nds-bannertitle-cn'
p570
NsS'iphone-distribution-key'
p571
NsS'android-icon-gallery'
p572
NsS'blackberry-keystore'
p573
NsS'ws8-extra-res'
p574
(lp575
sS'caption'
p576
NsS'android-extra-manifest'
p577
(lp578
sS'wp81-ext-sdk-ref'
p579
(lp580
sS'android-icon-xxhdpi'
p581
NsS'version-minor'
p582
NsS'iphone-link-libdirs'
p583
(lp584
sS'iphone-icon-large'
p585
NsS'symbian-keypwd'
p586
NsS'symbian8-uid'
p587
NsS'symbian-cert-key'
p588
NsS'winmobile-ampd-part-number'
p589
NsS'arch'
p590
NsS'nds-romheadertemplate'
p591
NsS'webos-icon'
p592
NsS'wp81-ext-device-capabilities'
p593
(lp594
sS'psp-dlgprotectdocument'
p595
NsS'ws8-splash-screen-background'
p596
NsS'android-icon-mdpi'
p597
NsS'nds-icon'
p598
NsS'ws8-custom-manifest-fill'
p599
NsS'iphone-development-cert'
p600
NsS'blackberry-phone-icon'
p601
NsS'iphone-enable-4inch-retina'
p602
NsS'ws8-custom-manifest'
p603
NsS'version-major'
p604
NsS'wp8-genre-isgame'
p605
NsS'uiq3-uid'
p606
NsS'iphone-splash-retina-generate'
p607
NsS'tizen-hw-acceleration'
p608
NsS'iphone_bundle_localisations'
p609
NsS'tizen-dist1-key'
p610
NsS'wp81-custom-manifest-fill'
p611
NsS'wp8-custom-manifest'
p612
NsS'nds-bannertitle-ge'
p613
NsS'iphone-sign-for-distribution'
p614
NsS'wp8-tile-fliptemplate-medium-back-image'
p615
NsS'wp8-publisher-id'
p616
NsS'icon'
p617
NsS'wp8-exclude-wxga'
p618
NsS'wp81-identity-name'
p619
NsS'uiq3-icon2-mask'
p620
NsS'iphone-splashscreen-portrait'
p621
NsS'iphone-icon-high-res'
p622
NsS'ws81-distribution-pfx-password'
p623
NsS'playbook-author'
p624
NsS'android-icon-xhdpi'
p625
NsS'linux-ext-lib'
p626
(lp627
sS'blackberry-permissions-access-internet'
p628
NsS'wp8-exclude-720p'
p629
NsS'lgtv-use-drm'
p630
NsS'symbian-platsecflags'
p631
NsS'ws8-description'
p632
NsS'blackberry-playbook-icon'
p633
NsS'copyright'
p634
NsS'win32-gles-directory'
p635
NsS'version'
p636
NsS'ws81-logo-image150x150'
p637
NsS'osx-signing-identity-app'
p638
NsS'tizen-project-url'
p639
NsS'symbian-icon-svg'
p640
NsS'android-aliasname'
p641
NsS'psp-dlgmanual'
p642
NsS'brew-uid'
p643
NsS'symbian-locationsupport'
p644
NsS'wp81-logo-image50x50'
p645
NsS'ws8-ext-managed-dll'
p646
(lp647
sS'nds-bannertitle-it'
p648
NsS'ws81-custom-manifest-fill'
p649
NsS'ws8-ext-sdk-manifest-part'
p650
(lp651
sS'uiq3-icon1-mask'
p652
NsS'winmobile-icon16'
p653
NsS'ws8-product-name'
p654
NsS'blackberry-cskpass'
p655
NsS'winmobile-start-menu-folder'
p656
NsS'brew-clsid'
p657
NsS'roku-requires-bluetooth'
p658
NsS'ws8-ext-device-capabilities'
p659
(lp660
sS'blackberry-permissions-use-camera'
p661
NsS'ws81-extra-pri'
p662
(lp663
sS'iphone-prerendered-icon'
p664
NsS'iphone-appid'
p665
NsS'ws8-identity-name'
p666
NsS'tizen-dist2-CA-path'
p667
NsS'android-external-jars'
p668
(lp669
sS'winmobile-icon64'
p670
NsS'blackberry-permissions-post-notification'
p671
NsS'winmobile-setup-dll'
p672
NsS'firefoxos-manifest'
p673
NsS'win8-winrt-extra-res'
p674
(lp675
sS'wp81-ext-sdk-manifest-part'
p676
(lp677
sS'symbian9-uid'
p678
NsS'iphone-icon-ipad-ios7'
p679
NsS'winmobile-trace-file'
p680
NsS'roku-splash-color'
p681
NsS'psp-appversion'
p682
NsS'ws8-publisher-id'
p683
NsS'android-supports-gl-texture'
p684
(lp685
sS'winmobile-png45'
p686
NsS'wp81-extra-res'
p687
(lp688
sS'android-storepass'
p689
NsS'osx-signing-identity-inst'
p690
NsS'android-custom-activity'
p691
NsS'psp-discversion'
p692
NsS'wp81-ext-managed-dll'
p693
(lp694
sS'psp-copyright'
p695
NsS'embed-icf'
p696
NsS'tizen-manifest'
p697
NsS'osx-icon'
p698
NsS'webos-appinfo'
p699
NsS'psp-dlghealthwarning'
p700
NsS'webos-appid'
p701
NsS'roku-icon-side-hd'
p702
NsS'iphone-icon-ipad-search-high-res-ios7'
p703
NsS'ws81-ext-sdk-manifest-part'
p704
(lp705
sS'loader_name_prefix'
p706
NsS'nds-titlename'
p707
NsS'ws81-logo-image50x50'
p708
NsS'wp81-custom-manifest'
p709
NsS'osx-entitlements-plist'
p710
NsS'psp-dlgicon0'
p711
NsS'winmobile-nouninstall'
p712
NsS'psp-discid'
p713
NsS'tizen-dist2-password'
p714
NsS'ws8-ext-sdk-ref'
p715
(lp716
sS'iphone-extra-string'
p717
(lp718
sS'version-string'
p719
NsS'iphone-icon-high-res-ios7'
p720
NsS'blackberry-permissions-record-audio'
p721
NsS'ws8-certificate-end-date'
p722
NsS'tizen-so'
p723
(lp724
sS'wp8-tile-fliptemplate-small-image'
p725
NsS'playbook-authorid'
p726
NsS'iphone-signing-identity'
p727
NsS'roku-persist-quota'
p728
NsS'nds-bannertitle-fr'
p729
NsS'ws8-distribution-pfx'
p730
NsS'ws8-publisher-display-name'
p731
NsS'brew-icon-small'
p732
NsS'psp-dlgpic2'
p733
NsS'psp-dlgpic0'
p734
NsS'psp-pic0'
p735
NsS'psp-pic1'
p736
NsS'win32-pref-windowtitle'
p737
NsS'psp-icon0'
p738
NsS'psp-icon1'
p739
NsS'ws81-identity-name'
p740
NsS'winmobile-icon'
p741
NsS'iphone-no-splash'
p742
NsS'iphone-splash'
p743
NsS'iphone-app-fonts'
p744
NsS'wp8-ext-native-dll'
p745
(lp746
sS'wp81-splash-screen-image480x800'
p747
NsS'ws81-distribution-cer'
p748
NsS'uiq3-icon2'
p749
NsS'uiq3-icon3'
p750
NsS'uiq3-icon1'
p751
NsS'uiq3-icon1-format'
p752
NsS'ws8-logo-image50x50'
p753
NsS'symbian-icon2-mask-black'
p754
NsS'symbian-run-on-install'
p755
NsS'wp81-description'
p756
NsS'ws81-publisher-display-name'
p757
NsS'firefoxos-xulrunner'
p758
NsS'symbian-soundrecordsupport'
p759
NsS'nds-bannertitle-sp'
p760
NsS'psp-producer'
p761
NsS'iphone-apple-wwdr-cert'
p762
NsS'android-icon-nonstandard'
p763
NsS'win32-pref-processtitle'
p764
NsS'nds-bannertitle-hn'
p765
NsS'tizen-dist2-key'
p766
NsS'brew-depends'
p767
NsS'ws81-custom-manifest'
p768
NsS'iphone-icon-ipad-search-ios7'
p769
NsS'brew-icon-medium'
p770
NsS'iphone-bundle-url-name'
p771
NsS'wp8-tile-fliptemplate-large-front-image'
p772
NsS'tizen-dist2-CA-root-path'
p773
NsS'ws81-description'
p774
NsS'uiq3-icon3-format'
p775
NsS'ws81-logo-image30x30'
p776
NsS'win8-phone-extra-res'
p777
(lp778
sS'iphone-signing-host'
p779
NsS'tizen-icon'
p780
NsS'osx-info-plist'
p781
NsS'symbian-icon1-format'
p782
NsS'win8-store-extra-res'
p783
(lp784
sS'blackberry-authorid'
p785
NsS'ws81-publisher-id'
p786
NsS'ws81-distribution-pfx'
p787
NsS'wp8-description'
p788
NsS'iphone-link-opts'
p789
(lp790
sS'ws81-ext-sdk-ref'
p791
(lp792
sS'roku-splash-min-time'
p793
NsS'wp8-tile-fliptemplate-medium-front-image'
p794
NsS'provider'
p795
NsS'playbook-keystore'
p796
NsS'tizen-appid'
p797
NsS'wp8-extra-res'
p798
(lp799
sS'symbian-osexecsupport'
p800
NsS'android-install-location'
p801
NsS'nds-privatesavedatasize'
p802
NsS'playbook-storepass'
p803
NsS'android-icon-ldpi'
p804
NsS'manufacturer'
p805
NsS'itunes-artwork'
p806
NsS'iphone-extra-sections'
p807
NsS'ws81-product-name'
p808
NsS'ws81-ext-native-dll'
p809
(lp810
sS'ws8-extra-pri'
p811
(lp812
sS'win32-icon'
p813
NsS'ws8-logo-image30x30'
p814
NsS'wp8-ext-managed-dll'
p815
(lp816
sS'iphone-splashscreen-landscape'
p817
NsS'symbian-maxheapsize'
p818
NsS'nds-makercode'
p819
NsS'priv-sign-key'
p820
NsS'networking'
p821
NsS'android-icon'
p822
NsS'iphone-icon-settings'
p823
NsS'wp81-phone-product-id'
p824
NsS'firefoxos-icon-60X60'
p825
NsS'iphone-distribution-cert'
p826
NsS'android_extra_strings'
p827
NsS'nds-bannertitle-en'
p828
NsS'wp8-tile-fliptemplate-title'
p829
NsS'android-so'
p830
(lp831
sS'wp8-higher-mem'
p832
NsS'wp8-ext-sdk-ref'
p833
(lp834
sS'roku-splash-screen-hd'
p835
NsS'iphone-bundle-url-schemes'
p836
NsS'roku-screensaver-private'
p837
NsS'osx-extra-res'
p838
(lp839
sS'ws81-extra-res'
p840
(lp841
sS'playbook-icon'
p842
NsS'uid'
p843
NsS'pkguid-as-uid'
p844
NsS'wp81-ext-native-dll'
p845
(lp846
sS'tizen-dist1-password'
p847
NsS'roku-screensaver-title'
p848
NsS'osx-minimum-osx-version'
p849
NsS'symbian-cert'
p850
NsS'iphone-icon'
p851
NsS'ws81-ext-capabilities'
p852
(lp853
sS'ws8-distribution-cer'
p854
NsS'playbook-access-shared'
p855
NsS'iphone-icon-ipad-high-res-ios7'
p856
NsS'iphone-link-libs'
p857
(lp858
sS'wp8-exclude-wvga'
p859
NsS'assets'
p860
NsS'wp8-tile-fliptemplate-large-back-image'
p861
NsS'wp8-custom-manifest-fill'
p862
NsS'pub-sign-key'
p863
NsS'android-extra-strings'
p864
NsS'tizen-author-CA-path'
p865
Nssg318
g412
sbssS'platform'
p866
S'S3E'
p867
sg62
S'1.0'
p868
sS'arcade_platform'
p869
g4
sS'extensions'
p870
(dp871
sS'source_groups_tree'
p872
(dp873
S'Source'
p874
(dp875
S'e:/Documents/Michiel/Programmeren/Marmalade/HelloWorld/src/Main.cpp'
p876
(lp877
I1
a(dp878
asS'UI'
p879
(dp880
S'e:/Documents/Michiel/Programmeren/Marmalade/HelloWorld/src/MainMenu.cpp'
p881
(lp882
I1
ag878
asS'e:/Documents/Michiel/Programmeren/Marmalade/HelloWorld/src/MainMenu.h'
p883
(lp884
I1
ag878
assS'e:/Documents/Michiel/Programmeren/Marmalade/HelloWorld/src/HelloWorld.cpp'
p885
(lp886
I1
ag878
asssS'files'
p887
(dp888
S'dlfcn.h'
p889
g292
(cmkb_main
File
p890
g294
Ntp891
Rp892
(dp893
S'flags'
p894
(dp895
sS'group'
p896
(lp897
S"'Marmalade System (S3E)'"
p898
aS'stdc headers'
p899
asg318
S'c:/marmalade/7.4/s3e/h/std/dlfcn.h'
p900
sbsS'iterator'
p901
g292
(g890
g294
Ntp902
Rp903
(dp904
g894
g895
sg896
(lp905
g898
aS'stdc headers'
p906
aS'c++'
p907
asg318
S'c:/marmalade/7.4/s3e/h/std/c++/iterator'
p908
sbsS'math_rvct.h'
p909
g292
(g890
g294
Ntp910
Rp911
(dp912
g894
g895
sg896
g897
sg318
S'c:/marmalade/7.4/s3e/h/std/math_rvct.h'
p913
sbsS'pthread_alloc'
p914
g292
(g890
g294
Ntp915
Rp916
(dp917
g894
g895
sg896
g905
sg318
S'c:/marmalade/7.4/s3e/h/std/c++/pthread_alloc'
p918
sbsS'ctype.h'
p919
g292
(g890
g294
Ntp920
Rp921
(dp922
g894
g895
sg896
g897
sg318
S'c:/marmalade/7.4/s3e/h/std/ctype.h'
p923
sbsS'ctime'
p924
g292
(g890
g294
Ntp925
Rp926
(dp927
g894
g895
sg896
g905
sg318
S'c:/marmalade/7.4/s3e/h/std/c++/ctime'
p928
sbsS's3e.h'
p929
g292
(g890
g294
Ntp930
Rp931
(dp932
g894
g895
sg896
(lp933
g898
asg318
S'c:/marmalade/7.4/s3e/h/s3e.h'
p934
sbsS'errno.h'
p935
g292
(g890
g294
Ntp936
Rp937
(dp938
g894
g895
sg896
g897
sg318
S'c:/marmalade/7.4/s3e/h/std/errno.h'
p939
sbsS's3ePointer.h'
p940
g292
(g890
g294
Ntp941
Rp942
(dp943
g894
g895
sg896
g933
sg318
S'c:/marmalade/7.4/s3e/h/s3ePointer.h'
p944
sbsS's3eImagePicker.h'
p945
g292
(g890
g294
Ntp946
Rp947
(dp948
g894
g895
sg896
(lp949
g898
aS'Extensions'
p950
asg318
S'c:/marmalade/7.4/s3e/h/ext/s3eImagePicker.h'
p951
sbsS'typeinfo'
p952
g292
(g890
g294
Ntp953
Rp954
(dp955
g894
g895
sg896
g905
sg318
S'c:/marmalade/7.4/s3e/h/std/c++/typeinfo'
p956
sbsS'fstream.h'
p957
g292
(g890
g294
Ntp958
Rp959
(dp960
g894
g895
sg896
g905
sg318
S'c:/marmalade/7.4/s3e/h/std/c++/fstream.h'
p961
sbsS'cfloat'
p962
g292
(g890
g294
Ntp963
Rp964
(dp965
g894
g895
sg896
g905
sg318
S'c:/marmalade/7.4/s3e/h/std/c++/cfloat'
p966
sbsS'stdio_streambuf'
p967
g292
(g890
g294
Ntp968
Rp969
(dp970
g894
g895
sg896
g905
sg318
S'c:/marmalade/7.4/s3e/h/std/c++/stdio_streambuf'
p971
sbsS'MainMenu.cpp'
p972
g292
(g890
g294
Ntp973
Rp974
(dp975
g894
g878
sg896
(lp976
g874
ag879
asg318
g881
sbsS'wctype.h'
p977
g292
(g890
g294
Ntp978
Rp979
(dp980
g894
g895
sg896
g897
sg318
S'c:/marmalade/7.4/s3e/h/std/wctype.h'
p981
sbsS'sched.h'
p982
g292
(g890
g294
Ntp983
Rp984
(dp985
g894
g895
sg896
g897
sg318
S'c:/marmalade/7.4/s3e/h/std/sched.h'
p986
sbsS'valarray'
p987
g292
(g890
g294
Ntp988
Rp989
(dp990
g894
g895
sg896
g905
sg318
S'c:/marmalade/7.4/s3e/h/std/c++/valarray'
p991
sbsS'cassert'
p992
g292
(g890
g294
Ntp993
Rp994
(dp995
g894
g895
sg896
g905
sg318
S'c:/marmalade/7.4/s3e/h/std/c++/cassert'
p996
sbsS'grp.h'
p997
g292
(g890
g294
Ntp998
Rp999
(dp1000
g894
g895
sg896
g897
sg318
S'c:/marmalade/7.4/s3e/h/std/grp.h'
p1001
sbsS'complex'
p1002
g292
(g890
g294
Ntp1003
Rp1004
(dp1005
g894
g895
sg896
g905
sg318
S'c:/marmalade/7.4/s3e/h/std/c++/complex'
p1006
sbsS'istream'
p1007
g292
(g890
g294
Ntp1008
Rp1009
(dp1010
g894
g895
sg896
g905
sg318
S'c:/marmalade/7.4/s3e/h/std/c++/istream'
p1011
sbsS'poll.h'
p1012
g292
(g890
g294
Ntp1013
Rp1014
(dp1015
g894
g895
sg896
g897
sg318
S'c:/marmalade/7.4/s3e/h/std/poll.h'
p1016
sbsS's3eAccelerometer.h'
p1017
g292
(g890
g294
Ntp1018
Rp1019
(dp1020
g894
g895
sg896
g933
sg318
S'c:/marmalade/7.4/s3e/h/s3eAccelerometer.h'
p1021
sbsS'iostream.h'
p1022
g292
(g890
g294
Ntp1023
Rp1024
(dp1025
g894
g895
sg896
g905
sg318
S'c:/marmalade/7.4/s3e/h/std/c++/iostream.h'
p1026
sbsS'setjmp.h'
p1027
g292
(g890
g294
Ntp1028
Rp1029
(dp1030
g894
g895
sg896
g897
sg318
S'c:/marmalade/7.4/s3e/h/std/setjmp.h'
p1031
sbsS'cstddef'
p1032
g292
(g890
g294
Ntp1033
Rp1034
(dp1035
g894
g895
sg896
g905
sg318
S'c:/marmalade/7.4/s3e/h/std/c++/cstddef'
p1036
sbsS'string'
p1037
g292
(g890
g294
Ntp1038
Rp1039
(dp1040
g894
g895
sg896
g905
sg318
S'c:/marmalade/7.4/s3e/h/std/c++/string'
p1041
sbsS'mman.h'
p1042
g292
(g890
g294
Ntp1043
Rp1044
(dp1045
g894
g895
sg896
(lp1046
g898
aS'stdc headers'
p1047
aS'sys'
p1048
asg318
S'c:/marmalade/7.4/s3e/h/std/sys/mman.h'
p1049
sbsS'Main.cpp'
p1050
g292
(g890
g294
Ntp1051
Rp1052
(dp1053
g894
g878
sg896
(lp1054
S'Source'
p1055
asg318
g876
sbsS'libgen.h'
p1056
g292
(g890
g294
Ntp1057
Rp1058
(dp1059
g894
g895
sg896
g897
sg318
S'c:/marmalade/7.4/s3e/h/std/libgen.h'
p1060
sbsS'utsname.h'
p1061
g292
(g890
g294
Ntp1062
Rp1063
(dp1064
g894
g895
sg896
g1046
sg318
S'c:/marmalade/7.4/s3e/h/std/sys/utsname.h'
p1065
sbsS'wait.h'
p1066
g292
(g890
g294
Ntp1067
Rp1068
(dp1069
g894
g895
sg896
g1046
sg318
S'c:/marmalade/7.4/s3e/h/std/sys/wait.h'
p1070
sbsS'iomanip'
p1071
g292
(g890
g294
Ntp1072
Rp1073
(dp1074
g894
g895
sg896
g905
sg318
S'c:/marmalade/7.4/s3e/h/std/c++/iomanip'
p1075
sbsS'istream.h'
p1076
g292
(g890
g294
Ntp1077
Rp1078
(dp1079
g894
g895
sg896
g905
sg318
S'c:/marmalade/7.4/s3e/h/std/c++/istream.h'
p1080
sbsS'cwchar'
p1081
g292
(g890
g294
Ntp1082
Rp1083
(dp1084
g894
g895
sg896
g905
sg318
S'c:/marmalade/7.4/s3e/h/std/c++/cwchar'
p1085
sbsS'stdint.h'
p1086
g292
(g890
g294
Ntp1087
Rp1088
(dp1089
g894
g895
sg896
g897
sg318
S'c:/marmalade/7.4/s3e/h/std/stdint.h'
p1090
sbsS'semaphore.h'
p1091
g292
(g890
g294
Ntp1092
Rp1093
(dp1094
g894
g895
sg896
g897
sg318
S'c:/marmalade/7.4/s3e/h/std/semaphore.h'
p1095
sbsS'iosfwd'
p1096
g292
(g890
g294
Ntp1097
Rp1098
(dp1099
g894
g895
sg896
g905
sg318
S'c:/marmalade/7.4/s3e/h/std/c++/iosfwd'
p1100
sbsS'gl2.h'
p1101
g292
(g890
g294
Ntp1102
Rp1103
(dp1104
g894
g895
sg896
(lp1105
g898
aS'GL'
p1106
aS'GLES 2.0'
p1107
asg318
S'c:/marmalade/7.4/s3e/h/GLES2/gl2.h'
p1108
sbsS'assert.h'
p1109
g292
(g890
g294
Ntp1110
Rp1111
(dp1112
g894
g895
sg896
g897
sg318
S'c:/marmalade/7.4/s3e/h/std/assert.h'
p1113
sbsS'param.h'
p1114
g292
(g890
g294
Ntp1115
Rp1116
(dp1117
g894
g895
sg896
g1046
sg318
S'c:/marmalade/7.4/s3e/h/std/sys/param.h'
p1118
sbsS'dir.h'
p1119
g292
(g890
g294
Ntp1120
Rp1121
(dp1122
g894
g895
sg896
g1046
sg318
S'c:/marmalade/7.4/s3e/h/std/sys/dir.h'
p1123
sbsS'locale.h'
p1124
g292
(g890
g294
Ntp1125
Rp1126
(dp1127
g894
g895
sg896
g897
sg318
S'c:/marmalade/7.4/s3e/h/std/locale.h'
p1128
sbsS'vector'
p1129
g292
(g890
g294
Ntp1130
Rp1131
(dp1132
g894
g895
sg896
g905
sg318
S'c:/marmalade/7.4/s3e/h/std/c++/vector'
p1133
sbsS'ostream'
p1134
g292
(g890
g294
Ntp1135
Rp1136
(dp1137
g894
g895
sg896
g905
sg318
S'c:/marmalade/7.4/s3e/h/std/c++/ostream'
p1138
sbsS'termios.h'
p1139
g292
(g890
g294
Ntp1140
Rp1141
(dp1142
g894
g895
sg896
g897
sg318
S'c:/marmalade/7.4/s3e/h/std/termios.h'
p1143
sbsS'cwctype'
p1144
g292
(g890
g294
Ntp1145
Rp1146
(dp1147
g894
g895
sg896
g905
sg318
S'c:/marmalade/7.4/s3e/h/std/c++/cwctype'
p1148
sbsS'streambuf.h'
p1149
g292
(g890
g294
Ntp1150
Rp1151
(dp1152
g894
g895
sg896
g905
sg318
S'c:/marmalade/7.4/s3e/h/std/c++/streambuf.h'
p1153
sbsS'stdiostream.h'
p1154
g292
(g890
g294
Ntp1155
Rp1156
(dp1157
g894
g895
sg896
g905
sg318
S'c:/marmalade/7.4/s3e/h/std/c++/stdiostream.h'
p1158
sbsS'sstream'
p1159
g292
(g890
g294
Ntp1160
Rp1161
(dp1162
g894
g895
sg896
g905
sg318
S'c:/marmalade/7.4/s3e/h/std/c++/sstream'
p1163
sbsS'mem.h'
p1164
g292
(g890
g294
Ntp1165
Rp1166
(dp1167
g894
g895
sg896
g905
sg318
S'c:/marmalade/7.4/s3e/h/std/c++/mem.h'
p1168
sbsS'slist'
p1169
g292
(g890
g294
Ntp1170
Rp1171
(dp1172
g894
g895
sg896
g905
sg318
S'c:/marmalade/7.4/s3e/h/std/c++/slist'
p1173
sbsS's3eCompass.h'
p1174
g292
(g890
g294
Ntp1175
Rp1176
(dp1177
g894
g895
sg896
g933
sg318
S'c:/marmalade/7.4/s3e/h/s3eCompass.h'
p1178
sbsS'prctl.h'
p1179
g292
(g890
g294
Ntp1180
Rp1181
(dp1182
g894
g895
sg896
g1046
sg318
S'c:/marmalade/7.4/s3e/h/std/sys/prctl.h'
p1183
sbsS'locale'
p1184
g292
(g890
g294
Ntp1185
Rp1186
(dp1187
g894
g895
sg896
g905
sg318
S'c:/marmalade/7.4/s3e/h/std/c++/locale'
p1188
sbsS'list'
p1189
g292
(g890
g294
Ntp1190
Rp1191
(dp1192
g894
g895
sg896
g905
sg318
S'c:/marmalade/7.4/s3e/h/std/c++/list'
p1193
sbsS'climits'
p1194
g292
(g890
g294
Ntp1195
Rp1196
(dp1197
g894
g895
sg896
g905
sg318
S'c:/marmalade/7.4/s3e/h/std/c++/climits'
p1198
sbsS's3e.config.txt'
p1199
g292
(g890
g294
Ntp1200
Rp1201
(dp1202
g894
g895
sg896
g933
sg318
S'c:/marmalade/7.4/s3e/s3e.config.txt'
p1203
sbsS'numeric'
p1204
g292
(g890
g294
Ntp1205
Rp1206
(dp1207
g894
g895
sg896
g905
sg318
S'c:/marmalade/7.4/s3e/h/std/c++/numeric'
p1208
sbsS'utime.h'
p1209
g292
(g890
g294
Ntp1210
Rp1211
(dp1212
g894
g895
sg896
g897
sg318
S'c:/marmalade/7.4/s3e/h/std/utime.h'
p1213
sbsS'cstdio'
p1214
g292
(g890
g294
Ntp1215
Rp1216
(dp1217
g894
g895
sg896
g905
sg318
S'c:/marmalade/7.4/s3e/h/std/c++/cstdio'
p1218
sbsS's3eVibra.h'
p1219
g292
(g890
g294
Ntp1220
Rp1221
(dp1222
g894
g895
sg896
g933
sg318
S'c:/marmalade/7.4/s3e/h/s3eVibra.h'
p1223
sbsS'fnmatch.h'
p1224
g292
(g890
g294
Ntp1225
Rp1226
(dp1227
g894
g895
sg896
g897
sg318
S'c:/marmalade/7.4/s3e/h/std/fnmatch.h'
p1228
sbsS'stack'
p1229
g292
(g890
g294
Ntp1230
Rp1231
(dp1232
g894
g895
sg896
g905
sg318
S'c:/marmalade/7.4/s3e/h/std/c++/stack'
p1233
sbsS'strings.h'
p1234
g292
(g890
g294
Ntp1235
Rp1236
(dp1237
g894
g895
sg896
g897
sg318
S'c:/marmalade/7.4/s3e/h/std/strings.h'
p1238
sbsS'inttypes.h'
p1239
g292
(g890
g294
Ntp1240
Rp1241
(dp1242
g894
g895
sg896
g897
sg318
S'c:/marmalade/7.4/s3e/h/std/inttypes.h'
p1243
sbsS'HelloWorld.cpp'
p1244
g292
(g890
g294
Ntp1245
Rp1246
(dp1247
g894
g878
sg896
g1054
sg318
g885
sbsS'dirent.h'
p1248
g292
(g890
g294
Ntp1249
Rp1250
(dp1251
g894
g895
sg896
g897
sg318
S'c:/marmalade/7.4/s3e/h/std/dirent.h'
p1252
sbsS's3eExt.h'
p1253
g292
(g890
g294
Ntp1254
Rp1255
(dp1256
g894
g895
sg896
g933
sg318
S'c:/marmalade/7.4/s3e/h/s3eExt.h'
p1257
sbsS's3eSurface.h'
p1258
g292
(g890
g294
Ntp1259
Rp1260
(dp1261
g894
g895
sg896
g933
sg318
S'c:/marmalade/7.4/s3e/h/s3eSurface.h'
p1262
sbsS'new'
p1263
g292
(g890
g294
Ntp1264
Rp1265
(dp1266
g894
g895
sg896
g905
sg318
S'c:/marmalade/7.4/s3e/h/std/c++/new'
p1267
sbsS'stdlib.h'
p1268
g292
(g890
g294
Ntp1269
Rp1270
(dp1271
g894
g895
sg896
g897
sg318
S'c:/marmalade/7.4/s3e/h/std/stdlib.h'
p1272
sbsS'utility'
p1273
g292
(g890
g294
Ntp1274
Rp1275
(dp1276
g894
g895
sg896
g905
sg318
S'c:/marmalade/7.4/s3e/h/std/c++/utility'
p1277
sbsS'stddef.h'
p1278
g292
(g890
g294
Ntp1279
Rp1280
(dp1281
g894
g895
sg896
g897
sg318
S'c:/marmalade/7.4/s3e/h/std/stddef.h'
p1282
sbsS's3eWindow.h'
p1283
g292
(g890
g294
Ntp1284
Rp1285
(dp1286
g894
g895
sg896
g949
sg318
S'c:/marmalade/7.4/s3e/h/ext/s3eWindow.h'
p1287
sbsS's3eMetrics.h'
p1288
g292
(g890
g294
Ntp1289
Rp1290
(dp1291
g894
g895
sg896
g949
sg318
S'c:/marmalade/7.4/s3e/h/ext/s3eMetrics.h'
p1292
sbsS'iostream'
p1293
g292
(g890
g294
Ntp1294
Rp1295
(dp1296
g894
g895
sg896
g905
sg318
S'c:/marmalade/7.4/s3e/h/std/c++/iostream'
p1297
sbsS'glplatform.h'
p1298
g292
(g890
g294
Ntp1299
Rp1300
(dp1301
g894
g895
sg896
(lp1302
g898
aS'GL'
p1303
aS'GLES 1.x'
p1304
asg318
S'c:/marmalade/7.4/s3e/h/GLES/glplatform.h'
p1305
sbsS'app.icf'
p1306
g292
(g890
g294
Ntp1307
Rp1308
(dp1309
g894
(dp1310
sg896
g4
sg318
S'e:/Documents/Michiel/Programmeren/Marmalade/HelloWorld/data/app.icf'
p1311
sbsS'ucontext.h'
p1312
g292
(g890
g294
Ntp1313
Rp1314
(dp1315
g894
g895
sg896
g897
sg318
S'c:/marmalade/7.4/s3e/h/std/ucontext.h'
p1316
sbsS'setjmp_win32.h'
p1317
g292
(g890
g294
Ntp1318
Rp1319
(dp1320
g894
g895
sg896
g897
sg318
S'c:/marmalade/7.4/s3e/h/std/setjmp_win32.h'
p1321
sbsS's3eOSExec.h'
p1322
g292
(g890
g294
Ntp1323
Rp1324
(dp1325
g894
g895
sg896
g949
sg318
S'c:/marmalade/7.4/s3e/h/ext/s3eOSExec.h'
p1326
sbsS'string.h'
p1327
g292
(g890
g294
Ntp1328
Rp1329
(dp1330
g894
g895
sg896
g897
sg318
S'c:/marmalade/7.4/s3e/h/std/string.h'
p1331
sbsS'alloca.h'
p1332
g292
(g890
g294
Ntp1333
Rp1334
(dp1335
g894
g895
sg896
g897
sg318
S'c:/marmalade/7.4/s3e/h/std/alloca.h'
p1336
sbsS'float.h'
p1337
g292
(g890
g294
Ntp1338
Rp1339
(dp1340
g894
g895
sg896
g897
sg318
S'c:/marmalade/7.4/s3e/h/std/float.h'
p1341
sbsS'iomanip.h'
p1342
g292
(g890
g294
Ntp1343
Rp1344
(dp1345
g894
g895
sg896
g905
sg318
S'c:/marmalade/7.4/s3e/h/std/c++/iomanip.h'
p1346
sbsS'limits'
p1347
g292
(g890
g294
Ntp1348
Rp1349
(dp1350
g894
g895
sg896
g905
sg318
S'c:/marmalade/7.4/s3e/h/std/c++/limits'
p1351
sbsS'gl2platform.h'
p1352
g292
(g890
g294
Ntp1353
Rp1354
(dp1355
g894
g895
sg896
g1105
sg318
S'c:/marmalade/7.4/s3e/h/GLES2/gl2platform.h'
p1356
sbsS'queue'
p1357
g292
(g890
g294
Ntp1358
Rp1359
(dp1360
g894
g895
sg896
g905
sg318
S'c:/marmalade/7.4/s3e/h/std/c++/queue'
p1361
sbsS's3eSecureStorage.h'
p1362
g292
(g890
g294
Ntp1363
Rp1364
(dp1365
g894
g895
sg896
g933
sg318
S'c:/marmalade/7.4/s3e/h/s3eSecureStorage.h'
p1366
sbsS'time_1.h'
p1367
g292
(g890
g294
Ntp1368
Rp1369
(dp1370
g894
g895
sg896
g1046
sg318
S'c:/marmalade/7.4/s3e/h/std/sys/time.h'
p1371
sbsS's3eLicense.h'
p1372
g292
(g890
g294
Ntp1373
Rp1374
(dp1375
g894
g895
sg896
g933
sg318
S'c:/marmalade/7.4/s3e/h/s3eLicense.h'
p1376
sbsS'fstream'
p1377
g292
(g890
g294
Ntp1378
Rp1379
(dp1380
g894
g895
sg896
g905
sg318
S'c:/marmalade/7.4/s3e/h/std/c++/fstream'
p1381
sbsS's3eCameraCapture.h'
p1382
g292
(g890
g294
Ntp1383
Rp1384
(dp1385
g894
g895
sg896
g949
sg318
S'c:/marmalade/7.4/s3e/h/ext/s3eCameraCapture.h'
p1386
sbsS'eglext.h'
p1387
g292
(g890
g294
Ntp1388
Rp1389
(dp1390
g894
g895
sg896
(lp1391
g898
aS'GL'
p1392
aS'EGL'
p1393
asg318
S'c:/marmalade/7.4/s3e/h/EGL/eglext.h'
p1394
sbsS'bitset'
p1395
g292
(g890
g294
Ntp1396
Rp1397
(dp1398
g894
g895
sg896
g905
sg318
S'c:/marmalade/7.4/s3e/h/std/c++/bitset'
p1399
sbsS'sendfile.h'
p1400
g292
(g890
g294
Ntp1401
Rp1402
(dp1403
g894
g895
sg896
g1046
sg318
S'c:/marmalade/7.4/s3e/h/std/sys/sendfile.h'
p1404
sbsS's3eTimer.h'
p1405
g292
(g890
g294
Ntp1406
Rp1407
(dp1408
g894
g895
sg896
g933
sg318
S'c:/marmalade/7.4/s3e/h/s3eTimer.h'
p1409
sbsS'socket.h'
p1410
g292
(g890
g294
Ntp1411
Rp1412
(dp1413
g894
g895
sg896
g1046
sg318
S'c:/marmalade/7.4/s3e/h/std/sys/socket.h'
p1414
sbsS'streambuf'
p1415
g292
(g890
g294
Ntp1416
Rp1417
(dp1418
g894
g895
sg896
g905
sg318
S'c:/marmalade/7.4/s3e/h/std/c++/streambuf'
p1419
sbsS'malloc.h'
p1420
g292
(g890
g294
Ntp1421
Rp1422
(dp1423
g894
g895
sg896
g897
sg318
S'c:/marmalade/7.4/s3e/h/std/malloc.h'
p1424
sbsS'signal_1.h'
p1425
g292
(g890
g294
Ntp1426
Rp1427
(dp1428
g894
g895
sg896
g1046
sg318
S'c:/marmalade/7.4/s3e/h/std/sys/signal.h'
p1429
sbsS'cstdarg'
p1430
g292
(g890
g294
Ntp1431
Rp1432
(dp1433
g894
g895
sg896
g905
sg318
S'c:/marmalade/7.4/s3e/h/std/c++/cstdarg'
p1434
sbsS'stdarg.h'
p1435
g292
(g890
g294
Ntp1436
Rp1437
(dp1438
g894
g895
sg896
g897
sg318
S'c:/marmalade/7.4/s3e/h/std/stdarg.h'
p1439
sbsS'strstream.h'
p1440
g292
(g890
g294
Ntp1441
Rp1442
(dp1443
g894
g895
sg896
g905
sg318
S'c:/marmalade/7.4/s3e/h/std/c++/strstream.h'
p1444
sbsS'shm.h'
p1445
g292
(g890
g294
Ntp1446
Rp1447
(dp1448
g894
g895
sg896
g1046
sg318
S'c:/marmalade/7.4/s3e/h/std/sys/shm.h'
p1449
sbsS'set'
p1450
g292
(g890
g294
Ntp1451
Rp1452
(dp1453
g894
g895
sg896
g905
sg318
S'c:/marmalade/7.4/s3e/h/std/c++/set'
p1454
sbsS'endian.h'
p1455
g292
(g890
g294
Ntp1456
Rp1457
(dp1458
g894
g895
sg896
g897
sg318
S'c:/marmalade/7.4/s3e/h/std/endian.h'
p1459
sbsS'gl2ext.h'
p1460
g292
(g890
g294
Ntp1461
Rp1462
(dp1463
g894
g895
sg896
g1105
sg318
S'c:/marmalade/7.4/s3e/h/GLES2/gl2ext.h'
p1464
sbsS'un.h'
p1465
g292
(g890
g294
Ntp1466
Rp1467
(dp1468
g894
g895
sg896
g1046
sg318
S'c:/marmalade/7.4/s3e/h/std/sys/un.h'
p1469
sbsS'temp_defines_debug.h'
p1470
g292
(g890
g294
Ntp1471
Rp1472
(dp1473
g894
(lp1474
sg896
(lp1475
S"'generated files'"
p1476
asg318
S'e:/Documents/Michiel/Programmeren/Marmalade/HelloWorld/build_helloworld_vc12x/temp_defines_debug.h'
p1477
sbsS'gl3ext.h'
p1478
g292
(g890
g294
Ntp1479
Rp1480
(dp1481
g894
g895
sg896
(lp1482
g898
aS'GL'
p1483
aS'GLES 3.0'
p1484
asg318
S'c:/marmalade/7.4/s3e/h/GLES3/gl3ext.h'
p1485
sbsS's3eSound.h'
p1486
g292
(g890
g294
Ntp1487
Rp1488
(dp1489
g894
g895
sg896
g933
sg318
S'c:/marmalade/7.4/s3e/h/s3eSound.h'
p1490
sbsS'glob.h'
p1491
g292
(g890
g294
Ntp1492
Rp1493
(dp1494
g894
g895
sg896
g897
sg318
S'c:/marmalade/7.4/s3e/h/std/glob.h'
p1495
sbsS'file.h'
p1496
g292
(g890
g294
Ntp1497
Rp1498
(dp1499
g894
g895
sg896
g1046
sg318
S'c:/marmalade/7.4/s3e/h/std/sys/file.h'
p1500
sbsS's3eIOSBackgroundAudio.h'
p1501
g292
(g890
g294
Ntp1502
Rp1503
(dp1504
g894
g895
sg896
g949
sg318
S'c:/marmalade/7.4/s3e/h/ext/s3eIOSBackgroundAudio.h'
p1505
sbsS'cstring'
p1506
g292
(g890
g294
Ntp1507
Rp1508
(dp1509
g894
g895
sg896
g905
sg318
S'c:/marmalade/7.4/s3e/h/std/c++/cstring'
p1510
sbsS'cerrno'
p1511
g292
(g890
g294
Ntp1512
Rp1513
(dp1514
g894
g895
sg896
g905
sg318
S'c:/marmalade/7.4/s3e/h/std/c++/cerrno'
p1515
sbsS'exception.h'
p1516
g292
(g890
g294
Ntp1517
Rp1518
(dp1519
g894
g895
sg896
g905
sg318
S'c:/marmalade/7.4/s3e/h/std/c++/exception.h'
p1520
sbsS's3eCamera.h'
p1521
g292
(g890
g294
Ntp1522
Rp1523
(dp1524
g894
g895
sg896
g933
sg318
S'c:/marmalade/7.4/s3e/h/s3eCamera.h'
p1525
sbsS'clocale'
p1526
g292
(g890
g294
Ntp1527
Rp1528
(dp1529
g894
g895
sg896
g905
sg318
S'c:/marmalade/7.4/s3e/h/std/c++/clocale'
p1530
sbsS'memory'
p1531
g292
(g890
g294
Ntp1532
Rp1533
(dp1534
g894
g895
sg896
g905
sg318
S'c:/marmalade/7.4/s3e/h/std/c++/memory'
p1535
sbsS'egl.h'
p1536
g292
(g890
g294
Ntp1537
Rp1538
(dp1539
g894
g895
sg896
g1391
sg318
S'c:/marmalade/7.4/s3e/h/EGL/egl.h'
p1540
sbsS'egl_1.h'
p1541
g292
(g890
g294
Ntp1542
Rp1543
(dp1544
g894
g895
sg896
g1302
sg318
S'c:/marmalade/7.4/s3e/h/GLES/egl.h'
p1545
sbsS'deque'
p1546
g292
(g890
g294
Ntp1547
Rp1548
(dp1549
g894
g895
sg896
g905
sg318
S'c:/marmalade/7.4/s3e/h/std/c++/deque'
p1550
sbsS'gl.h'
p1551
g292
(g890
g294
Ntp1552
Rp1553
(dp1554
g894
g895
sg896
g1302
sg318
S'c:/marmalade/7.4/s3e/h/GLES/gl.h'
p1555
sbsS's3eCrypto.h'
p1556
g292
(g890
g294
Ntp1557
Rp1558
(dp1559
g894
g895
sg896
g933
sg318
S'c:/marmalade/7.4/s3e/h/s3eCrypto.h'
p1560
sbsS's3eKeyboard.h'
p1561
g292
(g890
g294
Ntp1562
Rp1563
(dp1564
g894
g895
sg896
g933
sg318
S'c:/marmalade/7.4/s3e/h/s3eKeyboard.h'
p1565
sbsS's3eSMS.h'
p1566
g292
(g890
g294
Ntp1567
Rp1568
(dp1569
g894
g895
sg896
g949
sg318
S'c:/marmalade/7.4/s3e/h/ext/s3eSMS.h'
p1570
sbsS'cctype'
p1571
g292
(g890
g294
Ntp1572
Rp1573
(dp1574
g894
g895
sg896
g905
sg318
S'c:/marmalade/7.4/s3e/h/std/c++/cctype'
p1575
sbsS'limits.h'
p1576
g292
(g890
g294
Ntp1577
Rp1578
(dp1579
g894
g895
sg896
g897
sg318
S'c:/marmalade/7.4/s3e/h/std/limits.h'
p1580
sbsS'fcntl.h'
p1581
g292
(g890
g294
Ntp1582
Rp1583
(dp1584
g894
g895
sg896
g897
sg318
S'c:/marmalade/7.4/s3e/h/std/fcntl.h'
p1585
sbsS'sigcontext.h'
p1586
g292
(g890
g294
Ntp1587
Rp1588
(dp1589
g894
g895
sg896
g897
sg318
S'c:/marmalade/7.4/s3e/h/std/sigcontext.h'
p1590
sbsS'csignal'
p1591
g292
(g890
g294
Ntp1592
Rp1593
(dp1594
g894
g895
sg896
g905
sg318
S'c:/marmalade/7.4/s3e/h/std/c++/csignal'
p1595
sbsS'types.h'
p1596
g292
(g890
g294
Ntp1597
Rp1598
(dp1599
g894
g895
sg896
g1046
sg318
S'c:/marmalade/7.4/s3e/h/std/sys/types.h'
p1600
sbsS'pthread_types.h'
p1601
g292
(g890
g294
Ntp1602
Rp1603
(dp1604
g894
g895
sg896
g897
sg318
S'c:/marmalade/7.4/s3e/h/std/pthread_types.h'
p1605
sbsS'ifaddrs.h'
p1606
g292
(g890
g294
Ntp1607
Rp1608
(dp1609
g894
g895
sg896
g897
sg318
S'c:/marmalade/7.4/s3e/h/std/ifaddrs.h'
p1610
sbsS'MainMenu.h'
p1611
g292
(g890
g294
Ntp1612
Rp1613
(dp1614
g894
g878
sg896
g976
sg318
g883
sbsS'memory.h'
p1615
g292
(g890
g294
Ntp1616
Rp1617
(dp1618
g894
g895
sg896
g897
sg318
S'c:/marmalade/7.4/s3e/h/std/memory.h'
p1619
sbsS'getopt.h'
p1620
g292
(g890
g294
Ntp1621
Rp1622
(dp1623
g894
g895
sg896
g897
sg318
S'c:/marmalade/7.4/s3e/h/std/getopt.h'
p1624
sbsS'strstream'
p1625
g292
(g890
g294
Ntp1626
Rp1627
(dp1628
g894
g895
sg896
g905
sg318
S'c:/marmalade/7.4/s3e/h/std/c++/strstream'
p1629
sbsS'times.h'
p1630
g292
(g890
g294
Ntp1631
Rp1632
(dp1633
g894
g895
sg896
g1046
sg318
S'c:/marmalade/7.4/s3e/h/std/sys/times.h'
p1634
sbsS'exception'
p1635
g292
(g890
g294
Ntp1636
Rp1637
(dp1638
g894
g895
sg896
g905
sg318
S'c:/marmalade/7.4/s3e/h/std/c++/exception'
p1639
sbsS'pthread.h'
p1640
g292
(g890
g294
Ntp1641
Rp1642
(dp1643
g894
g895
sg896
g897
sg318
S'c:/marmalade/7.4/s3e/h/std/pthread.h'
p1644
sbsS'algorithm'
p1645
g292
(g890
g294
Ntp1646
Rp1647
(dp1648
g894
g895
sg896
g905
sg318
S'c:/marmalade/7.4/s3e/h/std/c++/algorithm'
p1649
sbsS'rlocks.h'
p1650
g292
(g890
g294
Ntp1651
Rp1652
(dp1653
g894
g895
sg896
g905
sg318
S'c:/marmalade/7.4/s3e/h/std/c++/rlocks.h'
p1654
sbsS'functional'
p1655
g292
(g890
g294
Ntp1656
Rp1657
(dp1658
g894
g895
sg896
g905
sg318
S'c:/marmalade/7.4/s3e/h/std/c++/functional'
p1659
sbsS'ioctl.h'
p1660
g292
(g890
g294
Ntp1661
Rp1662
(dp1663
g894
g895
sg896
g1046
sg318
S'c:/marmalade/7.4/s3e/h/std/sys/ioctl.h'
p1664
sbsS'rope'
p1665
g292
(g890
g294
Ntp1666
Rp1667
(dp1668
g894
g895
sg896
g905
sg318
S'c:/marmalade/7.4/s3e/h/std/c++/rope'
p1669
sbsS's3eHash.h'
p1670
g292
(g890
g294
Ntp1671
Rp1672
(dp1673
g894
g895
sg896
g933
sg318
S'c:/marmalade/7.4/s3e/h/s3eHash.h'
p1674
sbsS'ostream.h'
p1675
g292
(g890
g294
Ntp1676
Rp1677
(dp1678
g894
g895
sg896
g905
sg318
S'c:/marmalade/7.4/s3e/h/std/c++/ostream.h'
p1679
sbsS's3eSocket.h'
p1680
g292
(g890
g294
Ntp1681
Rp1682
(dp1683
g894
g895
sg896
g933
sg318
S'c:/marmalade/7.4/s3e/h/s3eSocket.h'
p1684
sbsS'unistd.h'
p1685
g292
(g890
g294
Ntp1686
Rp1687
(dp1688
g894
g895
sg896
g897
sg318
S'c:/marmalade/7.4/s3e/h/std/unistd.h'
p1689
sbsS'iconv.h'
p1690
g292
(g890
g294
Ntp1691
Rp1692
(dp1693
g894
g895
sg896
g897
sg318
S'c:/marmalade/7.4/s3e/h/std/iconv.h'
p1694
sbsS'ipc.h'
p1695
g292
(g890
g294
Ntp1696
Rp1697
(dp1698
g894
g895
sg896
g1046
sg318
S'c:/marmalade/7.4/s3e/h/std/sys/ipc.h'
p1699
sbsS's3eDevice.h'
p1700
g292
(g890
g294
Ntp1701
Rp1702
(dp1703
g894
g895
sg896
g933
sg318
S'c:/marmalade/7.4/s3e/h/s3eDevice.h'
p1704
sbsS'poll_1.h'
p1705
g292
(g890
g294
Ntp1706
Rp1707
(dp1708
g894
g895
sg896
g1046
sg318
S'c:/marmalade/7.4/s3e/h/std/sys/poll.h'
p1709
sbsS's3eThread.h'
p1710
g292
(g890
g294
Ntp1711
Rp1712
(dp1713
g894
g895
sg896
g933
sg318
S'c:/marmalade/7.4/s3e/h/s3eThread.h'
p1714
sbsS'stl_user_config.h'
p1715
g292
(g890
g294
Ntp1716
Rp1717
(dp1718
g894
g895
sg896
g905
sg318
S'c:/marmalade/7.4/s3e/h/std/c++/stl_user_config.h'
p1719
sbsS's3eCompression.h'
p1720
g292
(g890
g294
Ntp1721
Rp1722
(dp1723
g894
g895
sg896
g933
sg318
S'c:/marmalade/7.4/s3e/h/s3eCompression.h'
p1724
sbsS'langinfo.h'
p1725
g292
(g890
g294
Ntp1726
Rp1727
(dp1728
g894
g895
sg896
g897
sg318
S'c:/marmalade/7.4/s3e/h/std/langinfo.h'
p1729
sbsS's3edebugHeap.h'
p1730
g292
(g890
g294
Ntp1731
Rp1732
(dp1733
g894
g895
sg896
g949
sg318
S'c:/marmalade/7.4/s3e/h/ext/s3edebugHeap.h'
p1734
sbsS'time.h'
p1735
g292
(g890
g294
Ntp1736
Rp1737
(dp1738
g894
g895
sg896
g897
sg318
S'c:/marmalade/7.4/s3e/h/std/time.h'
p1739
sbsS'AirplayVersion.h'
p1740
g292
(g890
g294
Ntp1741
Rp1742
(dp1743
g894
g895
sg896
g933
sg318
S'c:/marmalade/7.4/s3e/h/AirplayVersion.h'
p1744
sbsS'stdexcept'
p1745
g292
(g890
g294
Ntp1746
Rp1747
(dp1748
g894
g895
sg896
g905
sg318
S'c:/marmalade/7.4/s3e/h/std/c++/stdexcept'
p1749
sbsS's3eSoundRecord.h'
p1750
g292
(g890
g294
Ntp1751
Rp1752
(dp1753
g894
g895
sg896
g933
sg318
S'c:/marmalade/7.4/s3e/h/s3eSoundRecord.h'
p1754
sbsS'gl2extimg.h'
p1755
g292
(g890
g294
Ntp1756
Rp1757
(dp1758
g894
g895
sg896
g1105
sg318
S'c:/marmalade/7.4/s3e/h/GLES2/gl2extimg.h'
p1759
sbsS's3eConfig.h'
p1760
g292
(g890
g294
Ntp1761
Rp1762
(dp1763
g894
g895
sg896
g933
sg318
S'c:/marmalade/7.4/s3e/h/s3eConfig.h'
p1764
sbsS'app.config.txt'
p1765
g292
(g890
g294
Ntp1766
Rp1767
(dp1768
g894
(dp1769
sg896
g4
sg318
S'e:/Documents/Michiel/Programmeren/Marmalade/HelloWorld/data/app.config.txt'
p1770
sbsS'stat.h'
p1771
g292
(g890
g294
Ntp1772
Rp1773
(dp1774
g894
g895
sg896
g1046
sg318
S'c:/marmalade/7.4/s3e/h/std/sys/stat.h'
p1775
sbsS's3eVersion.h'
p1776
g292
(g890
g294
Ntp1777
Rp1778
(dp1779
g894
g895
sg896
g933
sg318
S'c:/marmalade/7.4/s3e/h/s3eVersion.h'
p1780
sbsS'MarmaladeVersion.h'
p1781
g292
(g890
g294
Ntp1782
Rp1783
(dp1784
g894
g895
sg896
g933
sg318
S'c:/marmalade/7.4/s3e/h/MarmaladeVersion.h'
p1785
sbsS'syslog.h'
p1786
g292
(g890
g294
Ntp1787
Rp1788
(dp1789
g894
g895
sg896
g897
sg318
S'c:/marmalade/7.4/s3e/h/std/syslog.h'
p1790
sbsS'gl3platform.h'
p1791
g292
(g890
g294
Ntp1792
Rp1793
(dp1794
g894
g895
sg896
g1482
sg318
S'c:/marmalade/7.4/s3e/h/GLES3/gl3platform.h'
p1795
sbsS'byteswap.h'
p1796
g292
(g890
g294
Ntp1797
Rp1798
(dp1799
g894
g895
sg896
g897
sg318
S'c:/marmalade/7.4/s3e/h/std/byteswap.h'
p1800
sbsS'ios.h'
p1801
g292
(g890
g294
Ntp1802
Rp1803
(dp1804
g894
g895
sg896
g905
sg318
S'c:/marmalade/7.4/s3e/h/std/c++/ios.h'
p1805
sbsS'hash_map'
p1806
g292
(g890
g294
Ntp1807
Rp1808
(dp1809
g894
g895
sg896
g905
sg318
S'c:/marmalade/7.4/s3e/h/std/c++/hash_map'
p1810
sbsS'pthread_1.h'
p1811
g292
(g890
g294
Ntp1812
Rp1813
(dp1814
g894
g895
sg896
g905
sg318
S'c:/marmalade/7.4/s3e/h/std/c++/pthread.h'
p1815
sbsS's3e.mkf'
p1816
g292
(g890
g294
Ntp1817
Rp1818
(dp1819
g894
(dp1820
sg896
g933
sg318
S'c:/marmalade/7.4/s3e/s3e.mkf'
p1821
sbsS'hash_set'
p1822
g292
(g890
g294
Ntp1823
Rp1824
(dp1825
g894
g895
sg896
g905
sg318
S'c:/marmalade/7.4/s3e/h/std/c++/hash_set'
p1826
sbsS's3eTypes.h'
p1827
g292
(g890
g294
Ntp1828
Rp1829
(dp1830
g894
g895
sg896
g933
sg318
S'c:/marmalade/7.4/s3e/h/s3eTypes.h'
p1831
sbsS's3eContacts.h'
p1832
g292
(g890
g294
Ntp1833
Rp1834
(dp1835
g894
g895
sg896
g933
sg318
S'c:/marmalade/7.4/s3e/h/s3eContacts.h'
p1836
sbsS's3eOSReadString.h'
p1837
g292
(g890
g294
Ntp1838
Rp1839
(dp1840
g894
g895
sg896
g949
sg318
S'c:/marmalade/7.4/s3e/h/ext/s3eOSReadString.h'
p1841
sbsS'eglplatform.h'
p1842
g292
(g890
g294
Ntp1843
Rp1844
(dp1845
g894
g895
sg896
g1391
sg318
S'c:/marmalade/7.4/s3e/h/EGL/eglplatform.h'
p1846
sbsS'signal_2.h'
p1847
g292
(g890
g294
Ntp1848
Rp1849
(dp1850
g894
g895
sg896
g905
sg318
S'c:/marmalade/7.4/s3e/h/std/c++/signal.h'
p1851
sbsS'stdbool.h'
p1852
g292
(g890
g294
Ntp1853
Rp1854
(dp1855
g894
g895
sg896
g897
sg318
S'c:/marmalade/7.4/s3e/h/std/stdbool.h'
p1856
sbsS's3e.icf'
p1857
g292
(g890
g294
Ntp1858
Rp1859
(dp1860
g894
g895
sg896
g933
sg318
S'c:/marmalade/7.4/s3e/s3e.icf'
p1861
sbsS'math_gcc.h'
p1862
g292
(g890
g294
Ntp1863
Rp1864
(dp1865
g894
g895
sg896
g897
sg318
S'c:/marmalade/7.4/s3e/h/std/math_gcc.h'
p1866
sbsS's3eMemory.h'
p1867
g292
(g890
g294
Ntp1868
Rp1869
(dp1870
g894
g895
sg896
g933
sg318
S'c:/marmalade/7.4/s3e/h/s3eMemory.h'
p1871
sbsS'map'
p1872
g292
(g890
g294
Ntp1873
Rp1874
(dp1875
g894
g895
sg896
g905
sg318
S'c:/marmalade/7.4/s3e/h/std/c++/map'
p1876
sbsS'sem.h'
p1877
g292
(g890
g294
Ntp1878
Rp1879
(dp1880
g894
g895
sg896
g1046
sg318
S'c:/marmalade/7.4/s3e/h/std/sys/sem.h'
p1881
sbsS'wchar.h'
p1882
g292
(g890
g294
Ntp1883
Rp1884
(dp1885
g894
g895
sg896
g897
sg318
S'c:/marmalade/7.4/s3e/h/std/wchar.h'
p1886
sbsS'stdio.h'
p1887
g292
(g890
g294
Ntp1888
Rp1889
(dp1890
g894
g895
sg896
g897
sg318
S'c:/marmalade/7.4/s3e/h/std/stdio.h'
p1891
sbsS's3eFile.h'
p1892
g292
(g890
g294
Ntp1893
Rp1894
(dp1895
g894
g895
sg896
g933
sg318
S'c:/marmalade/7.4/s3e/h/s3eFile.h'
p1896
sbsS'type_traits.h'
p1897
g292
(g890
g294
Ntp1898
Rp1899
(dp1900
g894
g895
sg896
g905
sg318
S'c:/marmalade/7.4/s3e/h/std/c++/type_traits.h'
p1901
sbsS'ios'
p1902
g292
(g890
g294
Ntp1903
Rp1904
(dp1905
g894
g895
sg896
g905
sg318
S'c:/marmalade/7.4/s3e/h/std/c++/ios'
p1906
sbsS'msl_string.h'
p1907
g292
(g890
g294
Ntp1908
Rp1909
(dp1910
g894
g895
sg896
g905
sg318
S'c:/marmalade/7.4/s3e/h/std/c++/msl_string.h'
p1911
sbsS'select.h'
p1912
g292
(g890
g294
Ntp1913
Rp1914
(dp1915
g894
g895
sg896
g1046
sg318
S'c:/marmalade/7.4/s3e/h/std/sys/select.h'
p1916
sbsS's3eAudio.h'
p1917
g292
(g890
g294
Ntp1918
Rp1919
(dp1920
g894
g895
sg896
g933
sg318
S'c:/marmalade/7.4/s3e/h/s3eAudio.h'
p1921
sbsS'cstdlib'
p1922
g292
(g890
g294
Ntp1923
Rp1924
(dp1925
g894
g895
sg896
g905
sg318
S'c:/marmalade/7.4/s3e/h/std/c++/cstdlib'
p1926
sbsS's3eLocation.h'
p1927
g292
(g890
g294
Ntp1928
Rp1929
(dp1930
g894
g895
sg896
g933
sg318
S'c:/marmalade/7.4/s3e/h/s3eLocation.h'
p1931
sbsS'resource.h'
p1932
g292
(g890
g294
Ntp1933
Rp1934
(dp1935
g894
g895
sg896
g1046
sg318
S'c:/marmalade/7.4/s3e/h/std/sys/resource.h'
p1936
sbsS'cmath'
p1937
g292
(g890
g294
Ntp1938
Rp1939
(dp1940
g894
g895
sg896
g905
sg318
S'c:/marmalade/7.4/s3e/h/std/c++/cmath'
p1941
sbsS'signal.h'
p1942
g292
(g890
g294
Ntp1943
Rp1944
(dp1945
g894
g895
sg896
g897
sg318
S'c:/marmalade/7.4/s3e/h/std/signal.h'
p1946
sbsS'csetjmp'
p1947
g292
(g890
g294
Ntp1948
Rp1949
(dp1950
g894
g895
sg896
g905
sg318
S'c:/marmalade/7.4/s3e/h/std/c++/csetjmp'
p1951
sbsS's3eLibrary.h'
p1952
g292
(g890
g294
Ntp1953
Rp1954
(dp1955
g894
g895
sg896
g949
sg318
S'c:/marmalade/7.4/s3e/h/ext/s3eLibrary.h'
p1956
sbsS'netdb.h'
p1957
g292
(g890
g294
Ntp1958
Rp1959
(dp1960
g894
g895
sg896
g897
sg318
S'c:/marmalade/7.4/s3e/h/std/netdb.h'
p1961
sbsS's3eAndroidJNI.h'
p1962
g292
(g890
g294
Ntp1963
Rp1964
(dp1965
g894
g895
sg896
g949
sg318
S'c:/marmalade/7.4/s3e/h/ext/s3eAndroidJNI.h'
p1966
sbsS'new.h'
p1967
g292
(g890
g294
Ntp1968
Rp1969
(dp1970
g894
g895
sg896
g905
sg318
S'c:/marmalade/7.4/s3e/h/std/c++/new.h'
p1971
sbsS'math.h'
p1972
g292
(g890
g294
Ntp1973
Rp1974
(dp1975
g894
g895
sg896
g897
sg318
S'c:/marmalade/7.4/s3e/h/std/math.h'
p1976
sbsS's3eClipboard.h'
p1977
g292
(g890
g294
Ntp1978
Rp1979
(dp1980
g894
g895
sg896
g933
sg318
S'c:/marmalade/7.4/s3e/h/s3eClipboard.h'
p1981
sbsS's3eGL.h'
p1982
g292
(g890
g294
Ntp1983
Rp1984
(dp1985
g894
g895
sg896
g933
sg318
S'c:/marmalade/7.4/s3e/h/s3eGL.h'
p1986
sbsS's3eDebug.h'
p1987
g292
(g890
g294
Ntp1988
Rp1989
(dp1990
g894
g895
sg896
g933
sg318
S'c:/marmalade/7.4/s3e/h/s3eDebug.h'
p1991
sbsS's3eEMail.h'
p1992
g292
(g890
g294
Ntp1993
Rp1994
(dp1995
g894
g895
sg896
g949
sg318
S'c:/marmalade/7.4/s3e/h/ext/s3eEMail.h'
p1996
sbsS'uio.h'
p1997
g292
(g890
g294
Ntp1998
Rp1999
(dp2000
g894
g895
sg896
g1046
sg318
S'c:/marmalade/7.4/s3e/h/std/sys/uio.h'
p2001
sbsS'glext.h'
p2002
g292
(g890
g294
Ntp2003
Rp2004
(dp2005
g894
g895
sg896
g1302
sg318
S'c:/marmalade/7.4/s3e/h/GLES/glext.h'
p2006
sbsS's3eVideo.h'
p2007
g292
(g890
g294
Ntp2008
Rp2009
(dp2010
g894
g895
sg896
g933
sg318
S'c:/marmalade/7.4/s3e/h/s3eVideo.h'
p2011
sbsS'pwd.h'
p2012
g292
(g890
g294
Ntp2013
Rp2014
(dp2015
g894
g895
sg896
g897
sg318
S'c:/marmalade/7.4/s3e/h/std/pwd.h'
p2016
sbsS'typeinfo.h'
p2017
g292
(g890
g294
Ntp2018
Rp2019
(dp2020
g894
g895
sg896
g905
sg318
S'c:/marmalade/7.4/s3e/h/std/c++/typeinfo.h'
p2021
sbsS'temp_defines_release.h'
p2022
g292
(g890
g294
Ntp2023
Rp2024
(dp2025
g894
(lp2026
sg896
(lp2027
g1476
asg318
S'e:/Documents/Michiel/Programmeren/Marmalade/HelloWorld/build_helloworld_vc12x/temp_defines_release.h'
p2028
sbsS'gl3.h'
p2029
g292
(g890
g294
Ntp2030
Rp2031
(dp2032
g894
g895
sg896
g1482
sg318
S'c:/marmalade/7.4/s3e/h/GLES3/gl3.h'
p2033
sbssS'juice_build_type'
p2034
g4
sS'tests'
p2035
(lp2036
sS'project_name'
p2037
g300
sS'root_file'
p2038
g120
sS'current_root'
p2039
S'e:/Documents/Michiel/Programmeren/Marmalade/HelloWorld'
p2040
sS'dependencies'
p2041
(lp2042
sS'include_paths'
p2043
(lp2044
S'c:/marmalade/7.4/s3e/h'
p2045
aS'c:/marmalade/7.4/s3e/h/ext'
p2046
aS'c:/marmalade/7.4/s3e/h/std'
p2047
aS'c:/marmalade/7.4/s3e/h/std/c++'
p2048
aS'c:/marmalade/7.4/s3e/h/ext_legacy'
p2049
aS'c:/marmalade/7.4/s3e/h/legacy'
p2050
asS'weak_frameworks'
p2051
(lp2052
sS'extprojects'
p2053
(dp2054
sg418
(dp2055
g412
(lp2056
(g77
S'.'
p2057
I0
tp2058
assS'macro_types'
p2059
(dp2060
g394
I0
sg395
I0
sg396
I0
sg397
I0
sg398
I0
sg399
I0
sg400
I0
sg402
I0
sg403
I0
sg405
I01
ssS'commands'
p2061
(lp2062
sg420
(g867
S'VC12X'
p2063
S'X86ARM'
p2064
tp2065
sS'build_libs'
p2066
(dp2067
sg422
g0
sS'frameworks'
p2068
(lp2069
sS'environ'
p2070
(dp2071
sS'target_name_debug'
p2072
g300
sS'builders'
p2073
(dp2074
g412
(dp2075
S'.S'
p2076
(dp2077
S'rvct'
p2078
(lp2079
S'.obj'
p2080
aS'echo ARM Assembling(RVCT) ${SOURCE}...'
p2081
aS'c:/marmalade/7.4/s3e\\rvct\\bin\\armasm -o ${TARGET} ${SOURCE}'
p2082
asg365
(lp2083
g2080
aS'echo ARM Assembling(GCC) ${SOURCE}...'
p2084
aS'c:/marmalade/7.4/s3e\\gcc\\bin\\arm-none-eabi-gcc -c -o ${TARGET} ${SOURCE}'
p2085
asS'ppu'
p2086
(lp2087
S'.a'
p2088
aS'echo PPU Assembling(SNC) ${SOURCE}...'
p2089
aS'c:/marmalade/7.4/s3e\\rvct\\bin\\armasm -o ${TARGET} ${SOURCE}'
p2090
assS'.s'
p2091
g2077
sssS'extproject_names'
p2092
(lp2093
sbtp2094
.