((dp0
S'arm_dbg_args'
p1
S'-via:"e:\\Documents\\Michiel\\Programmeren\\Marmalade\\HelloWorld\\build_helloworld_vc12x\\HelloWorld_vc12x_arm_debug.via" -qemu'
p2
sS'game-icf'
p3
S''
p4
sS'dist'
p5
NsS'csproj'
p6
g4
sS'module_path_append'
p7
NsS'global_path'
p8
S'e:\\documents\\michiel\\programmeren\\marmalade'
p9
sS'system_path'
p10
S'c:\\marmalade\\7.4\\s3e\\makefile_builder'
p11
sS'android_x86_dbg_args'
p12
S'../../tools/DeployTool/DeployTool.exe --dir "e:\\Documents\\Michiel\\Programmeren\\Marmalade\\HelloWorld\\build_helloworld_vc12x"'
p13
sS'no-emit'
p14
NsS'arm-float-abi'
p15
g4
sS'arm_rel_rtsm_args'
p16
S'-via:"e:\\Documents\\Michiel\\Programmeren\\Marmalade\\HelloWorld\\build_helloworld_vc12x\\HelloWorld_vc12x_arm_release.via" -qemu'
p17
sS'amd64'
p18
NsS'line-width'
p19
I80
sS'gcc_dbg_args'
p20
S'-via:"e:\\Documents\\Michiel\\Programmeren\\Marmalade\\HelloWorld\\build_helloworld_vc12x\\HelloWorld_vc12x_gcc_debug.via" -qemu'
p21
sS'android-x86'
p22
NsS'x86_dbg_exe'
p23
S'c:/marmalade/7.4/s3e\\win32\\s3e_simulator_debug.exe'
p24
sS'disable-runtime-checks'
p25
NsS'release'
p26
NsS'no-make'
p27
NsS'xcode-x86-build-settings'
p28
g4
sS'optimise-size'
p29
NsS'output-name-debug'
p30
g4
sS'arm-fpu'
p31
g4
sS'proj_name'
p32
S'HelloWorld_vc12x'
p33
sS'enable-stdinc'
p34
NsS'compiler'
p35
g4
sS'execute'
p36
NsS'compile-static'
p37
NsS'msvc-project'
p38
I01
sS'buildenv'
p39
S'VC12X'
p40
sS'quick'
p41
NsS'module_path'
p42
NsS'use-release-std-libs'
p43
NsS'using_perforce'
p44
I00
sS'tizen-x86'
p45
NsS'mips-s3e'
p46
NsS's3e-api-lib-name'
p47
g4
sS'ios-no-pic'
p48
NsS'shared-arm-lib'
p49
NsS'arm-cpu'
p50
g4
sS'compile-thumb'
p51
NsS'no-ide'
p52
NsS'msvc-version'
p53
S'6.0'
p54
sS'arm'
p55
NsS'builddir'
p56
g4
sS'compile-debug-as-release'
p57
I0
sS'arm-arch'
p58
g4
sS'brief'
p59
NsS'dll'
p60
NsS'buildenv-toolset'
p61
g4
sS'version'
p62
NsS'ccache'
p63
I0
sS'offline'
p64
NsS'ios-version'
p65
g4
sS'hub_data'
p66
g4
sS'fake_vc_call'
p67
I01
sS'jobs'
p68
I0
sS'linkflags'
p69
NsS'debug'
p70
NsS'xcode-build-order'
p71
g4
sS'gcc_rel_rtsm_args'
p72
S'-via:"e:\\Documents\\Michiel\\Programmeren\\Marmalade\\HelloWorld\\build_helloworld_vc12x\\HelloWorld_vc12x_gcc_release.via" -qemu'
p73
sS'done_defaults'
p74
I1
sS'path'
p75
NsS's3e-data-dir'
p76
S'e:/Documents/Michiel/Programmeren/Marmalade/HelloWorld\\data'
p77
sS'enable-exceptions'
p78
NsS'osx-dll'
p79
NsS'extension'
p80
g4
sS'no-vc6'
p81
NsS'non-interactive'
p82
NsS'win32-console'
p83
NsS'dist-format'
p84
g4
sS's3e-force-arch'
p85
NsS'dump_defines'
p86
NsS'use_prebuilt'
p87
NsS'gcc-version'
p88
g4
sS'x86_dbg_args'
p89
S'-via:"e:\\Documents\\Michiel\\Programmeren\\Marmalade\\HelloWorld\\build_helloworld_vc12x\\HelloWorld_vc12x_debug.via"'
p90
sS'tizen_x86_dbg_args'
p91
g13
sS'arm-debugger'
p92
g4
sS'use_temp_extension'
p93
NsS'verbose'
p94
I0
sS'log'
p95
NsS'no-strip'
p96
NsS'rebuild'
p97
NsS'win32-simulator-dll'
p98
NsS'strict'
p99
NsS'mips_dbg_args'
p100
g13
sS'enable-global-path'
p101
NsS'cflags'
p102
NsS'dist-dir'
p103
g4
sS'xcode-arm-build-settings'
p104
g4
sS'jflags'
p105
NsS'csprojSDKRefs'
p106
g4
sS'tizen_x86_rel_exe'
p107
S'c:\\marmalade\\7.4\\s3e\\makefile_builder\\tool_launcher.exe'
p108
sS'test-assets'
p109
S'Default'
p110
sS'distcc'
p111
NsS'external-compiler'
p112
NsS'no-distcc'
p113
NsS'preinclude'
p114
NsS'using_sdk'
p115
I01
sS'nologo'
p116
NsS'warn-level'
p117
I2
sS'mips_dbg_exe'
p118
g108
sS'mkb_in'
p119
S'e:/Documents/Michiel/Programmeren/Marmalade/HelloWorld/HelloWorld.mkb'
p120
sS'tizen_x86_dbg_exe'
p121
g108
sS'arm_dbg_exe'
p122
S'c:/marmalade/7.4/s3e\\bin\\armdebug.exe'
p123
sS'csprojDLLRef'
p124
NsS'tizen_x86_rel_args'
p125
g13
sS'android_x86_dbg_exe'
p126
g108
sS'test-config'
p127
g4
sS'list-targets'
p128
NsS'arm_rel_exe'
p129
g108
sS'arm_rel_args'
p130
g13
sS'makedeps'
p131
NsS'android_x86_rel_exe'
p132
g108
sS'default-buildenv'
p133
S'vc12x'
p134
sS'x86_rel_exe'
p135
g24
sS'preprocess-java'
p136
NsS'mips_rel_args'
p137
g13
sS'defines'
p138
NsS'lib'
p139
NsS'global_argv'
p140
(lp141
S'C:\\Marmalade\\7.4\\s3e\\makefile_builder\\mkb.py'
p142
aS'e:/Documents/Michiel/Programmeren/Marmalade/HelloWorld/HelloWorld.mkb'
p143
aS'--buildenv=VC12X'
p144
aS'--test-assets'
p145
ag110
aS'--fake-vc-call'
p146
aS'--default-buildenv=vc12x'
p147
aS'--msvc-project'
p148
asS'make'
p149
NsS'optimise-speed'
p150
NsS'internal'
p151
NsS'rvct-version'
p152
g4
sS'deploy-only'
p153
NsS'x86'
p154
NsS'deploy'
p155
g4
sS'x86_run_exe'
p156
S'c:/marmalade/7.4/s3e\\win32\\s3e_console.exe'
p157
sS'x86_rel_args'
p158
S'-via:"e:\\Documents\\Michiel\\Programmeren\\Marmalade\\HelloWorld\\build_helloworld_vc12x\\HelloWorld_vc12x_release.via"'
p159
sS'gcc_rel_args'
p160
g13
sS'mips'
p161
NsS'xcode-build-settings'
p162
g4
sS'incredibuild'
p163
NsS'strict-compile'
p164
NsS'use-auto-subdirs'
p165
NsS'mips_rel_exe'
p166
g108
sS'android_x86_rel_args'
p167
g13
sS'app-icf'
p168
g4
sS'deployargs'
p169
NsS'iosnativedebug'
p170
NsS'mkf_in'
p171
(lp172
sS'strict-mkb'
p173
NsS'executeargs'
p174
NsS'clean'
p175
NsS'no-asm'
p176
NsS'output-name'
p177
g4
sS'no-modules'
p178
NsS'find_define'
p179
g4
s(dp180
S'c:\\marmalade\\7.4\\s3e\\makefile_builder\\plugins\\Emitter.pyc'
p181
F1411758008.0
sS'c:\\marmalade\\7.4\\s3e\\makefile_builder\\templates\\ws8_ext_sln.pyc'
p182
F1411758010.0
sS'c:\\marmalade\\7.4\\s3e\\makefile_builder\\templates\\MainWindow.xib'
p183
F1411756764.0
sS'c:\\marmalade\\7.4\\s3e\\makefile_builder\\templates\\template.suo'
p184
F1411756764.0
sS'c:\\marmalade\\7.4\\s3e\\makefile_builder\\plugins\\xcode4_schememanagement.py'
p185
F1411756764.0
sS'c:\\marmalade\\7.4\\s3e\\makefile_builder\\templates\\ws81_sln.pyc'
p186
F1411758010.0
sS'c:\\marmalade\\7.4\\s3e\\makefile_builder\\templates\\win8_ext_csproj.pyc'
p187
F1411758010.0
sS'c:\\marmalade\\7.4\\s3e\\makefile_builder\\mkb_option.pyc'
p188
F1411758008.0
sS'c:\\marmalade\\7.4\\s3e\\makefile_builder\\plugins\\s3e_xcode.py'
p189
F1411756764.0
sS'c:\\marmalade\\7.4\\s3e\\makefile_builder\\plugins\\s3e_scons.pyc'
p190
F1411758008.0
sS'c:\\marmalade\\7.4\\s3e\\makefile_builder\\templates\\win8_vcxproj.pyc'
p191
F1411758010.0
sS'c:\\marmalade\\7.4\\s3e\\makefile_builder\\plugins\\null.pyc'
p192
F1411758008.0
sS'c:\\marmalade\\7.4\\s3e\\makefile_builder\\templates\\vc8_user.pyc'
p193
F1411758010.0
sS'c:\\marmalade\\7.4\\s3e\\makefile_builder\\templates\\wp81_ext_sln.pyc'
p194
F1411758010.0
sS'c:\\marmalade\\7.4\\s3e\\makefile_builder\\templates\\scons.pyc'
p195
F1411758010.0
sS'c:\\marmalade\\7.4\\s3e\\makefile_builder\\templates\\wp8_ext_csproj.pyc'
p196
F1411758010.0
sS'c:\\marmalade\\7.4\\s3e\\makefile_builder\\templates\\xcode_pbxuser.py'
p197
F1411756766.0
sS'c:\\marmalade\\7.4\\s3e\\makefile_builder\\plugins\\s3e_qmake.py'
p198
F1411756764.0
sS'c:\\marmalade\\7.4\\s3e\\makefile_builder\\plugins\\iphone.pyc'
p199
F1411758010.0
sS'c:\\marmalade\\7.4\\s3e\\makefile_builder\\templates\\ws81_ext_csproj.pyc'
p200
F1411758010.0
sS'c:\\marmalade\\7.4\\s3e\\makefile_builder\\templates\\vc6_opt.pyc'
p201
F1411758010.0
sS'c:\\marmalade\\7.4\\s3e\\makefile_builder\\plugins\\s3e_win8.pyc'
p202
F1411758010.0
sS'c:\\marmalade\\7.4\\s3e\\makefile_builder\\mkb_main.pyc'
p203
F1411758008.0
sS'c:\\marmalade\\7.4\\s3e\\makefile_builder\\templates\\wp8_csproj.pyc'
p204
F1411758010.0
sS'c:\\marmalade\\7.4\\s3e\\makefile_builder\\templates\\win32_vcproj.pyc'
p205
F1411758010.0
sS'c:\\marmalade\\7.4\\s3e\\makefile_builder\\templates\\win8_sln.pyc'
p206
F1411758010.0
sS'c:\\marmalade\\7.4\\s3e\\makefile_builder\\mkb_launcher.exe'
p207
F1411757118.0
sS'c:\\marmalade\\7.4\\s3e\\makefile_builder\\plugins\\osx_xcode.pyc'
p208
F1411758010.0
sS'c:\\marmalade\\7.4\\s3e\\makefile_builder\\plugins'
p209
F1411803920.271899
sS'c:\\marmalade\\7.4\\s3e\\makefile_builder\\templates\\wp8_csproj_user.pyc'
p210
F1411758010.0
sS'c:\\marmalade\\7.4\\s3e\\makefile_builder\\plugins\\win32_vc6.pyc'
p211
F1411758010.0
sS'c:\\marmalade\\7.4\\s3e\\makefile_builder\\plugins\\s3e_vc6.pyc'
p212
F1411758008.0
sS'c:\\marmalade\\7.4\\s3e\\makefile_builder\\templates\\vc10_user.pyc'
p213
F1411758010.0
sS'c:\\marmalade\\7.4\\s3e\\makefile_builder\\docs\\deprecated.defines.txt'
p214
F1411756764.0
sS'c:\\marmalade\\7.4\\s3e\\makefile_builder\\templates\\wp81_csproj_user.pyc'
p215
F1411758010.0
sS'c:\\marmalade\\7.4\\s3e\\makefile_builder\\templates\\ws81_ext_sln.pyc'
p216
F1411758010.0
sS'c:\\marmalade\\7.4\\s3e\\makefile_builder\\templates\\make.py'
p217
F1411756764.0
sS'c:\\marmalade\\7.4\\s3e\\makefile_builder\\plugins\\wp81_wp81.pyc'
p218
F1411758010.0
sS'c:\\marmalade\\7.4\\s3e\\makefile_builder\\plugins\\s3e_qmake.pyc'
p219
F1411803920.1701696
sS'c:\\marmalade\\7.4\\s3e\\makefile_builder\\templates\\mips_linker_script'
p220
F1411756764.0
sS'c:\\marmalade\\7.4\\s3e\\makefile_builder\\plugins\\deploy.pyc'
p221
F1411758008.0
sS'c:\\marmalade\\7.4\\s3e\\makefile_builder\\plugins\\ws81_ws81.pyc'
p222
F1411758010.0
sS'c:\\marmalade\\7.4\\s3e\\makefile_builder\\mkb.py'
p223
F1411756764.0
sS'c:\\marmalade\\7.4\\s3e\\makefile_builder\\docs\\options.txt'
p224
F1411756764.0
sS'c:\\marmalade\\7.4\\s3e\\makefile_builder\\mkb_parser.pyc'
p225
F1411758008.0
sS'c:\\marmalade\\7.4\\s3e\\makefile_builder\\templates\\qmake_user.py'
p226
F1411756764.0
sS'c:\\marmalade\\7.4\\s3e\\makefile_builder\\docs\\mkb.defines.txt'
p227
F1411756764.0
sS'c:\\marmalade\\7.4\\s3e\\makefile_builder\\deployment.pyc'
p228
F1411758008.0
sS'c:\\marmalade\\7.4\\s3e\\makefile_builder\\plugins\\wp8_wp8.pyc'
p229
F1411758010.0
sS'c:\\marmalade\\7.4\\s3e\\makefile_builder\\plugins\\linux_scons.pyc'
p230
F1411758010.0
sS'c:\\marmalade\\7.4\\s3e\\makefile_builder\\plugins\\s3e_web.pyc'
p231
F1411758008.0
sS'c:\\marmalade\\7.4\\s3e\\makefile_builder\\plugins\\S3EEmitter.pyc'
p232
F1411758008.0
sS'c:\\marmalade\\7.4\\s3e\\makefile_builder\\plugins\\Win8Emitter.pyc'
p233
F1411758010.0
sS'c:\\marmalade\\7.4\\s3e\\makefile_builder\\templates\\xcode4_arm.xcscheme'
p234
F1411756766.0
sS'c:\\marmalade\\7.4\\s3e\\makefile_builder\\plugins\\vc6_utils.pyc'
p235
F1411758010.0
sS'c:\\marmalade\\7.4\\s3e\\makefile_builder\\templates\\wp8_vcxproj.pyc'
p236
F1411758010.0
sS'c:\\marmalade\\7.4\\s3e\\makefile_builder\\templates\\xcode4.xcscheme'
p237
F1411756766.0
sS'c:\\marmalade\\7.4\\s3e\\makefile_builder\\plugins\\MakeEmitter.pyc'
p238
F1411758008.0
sS'c:\\marmalade\\7.4\\s3e\\makefile_builder\\plugins\\java.pyc'
p239
F1411758010.0
sS'c:\\marmalade\\7.4\\s3e\\makefile_builder\\plugins\\XcodeEmitter.pyc'
p240
F1411803919.9116752
sS'c:\\marmalade\\7.4\\s3e\\makefile_builder\\plugins\\XcodeEmitter.py'
p241
F1411756764.0
sS'c:\\marmalade\\7.4\\s3e\\makefile_builder\\mkb_globals.pyc'
p242
F1411758008.0
sS'c:\\marmalade\\7.4\\s3e\\makefile_builder\\tool_launcher.exe'
p243
F1411757118.0
sS'c:\\marmalade\\7.4\\s3e\\makefile_builder\\mkb_util.pyc'
p244
F1411758008.0
sS'c:\\marmalade\\7.4\\s3e\\makefile_builder\\plugins\\xcode4_schememanagement.pyc'
p245
F1411803919.9427035
sS'c:\\marmalade\\7.4\\s3e\\makefile_builder\\templates\\ws8_sln.pyc'
p246
F1411758010.0
sS'c:\\marmalade\\7.4\\s3e\\makefile_builder\\templates\\win32_sln.pyc'
p247
F1411758010.0
sS'c:\\marmalade\\7.4\\s3e\\makefile_builder\\templates\\wp81_ext_csproj.pyc'
p248
F1411758010.0
sS'c:\\marmalade\\7.4\\s3e\\makefile_builder\\plugins\\s3e_wp81.pyc'
p249
F1411758010.0
sS'c:\\marmalade\\7.4\\s3e\\makefile_builder\\plugins\\s3e_wp8.pyc'
p250
F1411758010.0
sS'c:\\marmalade\\7.4\\s3e\\makefile_builder\\templates\\qmake.py'
p251
F1411756764.0
sS'c:\\marmalade\\7.4\\s3e\\makefile_builder\\templates\\gdb_start.txt'
p252
F1411756764.0
sS'c:\\marmalade\\7.4\\s3e\\makefile_builder\\templates'
p253
F1411803678.9534326
sS'c:\\marmalade\\7.4\\s3e\\makefile_builder\\templates\\ws8_ext_csproj.pyc'
p254
F1411758010.0
sS'c:\\marmalade\\7.4\\s3e\\makefile_builder\\templates\\win8_csproj_user.pyc'
p255
F1411758010.0
sS'c:\\marmalade\\7.4\\s3e\\makefile_builder\\templates\\vc7_suo.pyc'
p256
F1411758010.0
sS'c:\\marmalade\\7.4\\s3e\\makefile_builder\\plugins\\VisualStudioEmitter.pyc'
p257
F1411758010.0
sS'c:\\marmalade\\7.4\\s3e\\makefile_builder\\templates\\linker_script'
p258
F1411756764.0
sS'c:\\marmalade\\7.4\\s3e\\makefile_builder\\docs\\deprecated.options.txt'
p259
F1411756764.0
sS'c:\\marmalade\\7.4\\s3e\\makefile_builder\\plugins\\s3e_xcode.pyc'
p260
F1411803920.2749066
sS'c:\\marmalade\\7.4\\s3e\\makefile_builder\\plugins\\s3e_ws8.pyc'
p261
F1411758010.0
sS'c:\\marmalade\\7.4\\s3e\\makefile_builder\\templates\\xcode4_DeployTool.xcscheme'
p262
F1411756766.0
sS'c:\\marmalade\\7.4\\s3e\\makefile_builder\\templates\\ws8_csproj_user.pyc'
p263
F1411758010.0
sS'c:\\marmalade\\7.4\\s3e\\makefile_builder\\plugins\\osx_scons.pyc'
p264
F1411758010.0
sS'c:\\marmalade\\7.4\\s3e\\makefile_builder\\templates\\ws81_csproj.pyc'
p265
F1411758010.0
sS'c:\\marmalade\\7.4\\s3e\\makefile_builder\\templates\\wp8_sln.pyc'
p266
F1411758010.0
sS'c:\\marmalade\\7.4\\s3e\\makefile_builder\\docs'
p267
F1411803679.0535107
sS'c:\\marmalade\\7.4\\s3e\\makefile_builder\\plugins\\ws8_ws8.pyc'
p268
F1411758010.0
sS'c:\\marmalade\\7.4\\s3e\\makefile_builder\\docs\\deployment_options.txt'
p269
F1411756764.0
sS'c:\\marmalade\\7.4\\s3e\\makefile_builder\\templates\\win32_vcxproj_filters.pyc'
p270
F1411758010.0
sS'c:\\marmalade\\7.4\\s3e\\makefile_builder\\templates\\win32_dsw.pyc'
p271
F1411758010.0
sS'c:\\marmalade\\7.4\\s3e\\makefile_builder\\plugins\\s3e_ws81.pyc'
p272
F1411758010.0
sS'c:\\marmalade\\7.4\\s3e\\makefile_builder\\plugins\\SConsEmitter.pyc'
p273
F1411758010.0
sS'c:\\marmalade\\7.4\\s3e\\makefile_builder\\templates\\wp81_vcxproj.pyc'
p274
F1411758010.0
sS'c:\\marmalade\\7.4\\s3e\\makefile_builder\\plugins\\win8_utils.pyc'
p275
F1411758010.0
sS'c:\\marmalade\\7.4\\s3e\\makefile_builder\\templates\\template.opt'
p276
F1411756764.0
sS'c:\\marmalade\\7.4\\s3e\\makefile_builder\\plugins\\vc7_utils.pyc'
p277
F1411758010.0
sS'c:\\marmalade\\7.4\\s3e\\makefile_builder\\templates\\win32_dsp.pyc'
p278
F1411758010.0
sS'c:\\marmalade\\7.4\\s3e\\makefile_builder\\plugins\\s3e_make.pyc'
p279
F1411758008.0
sS'c:\\marmalade\\7.4\\s3e\\makefile_builder\\templates\\rvct_linker_script'
p280
F1411756764.0
sS'c:\\marmalade\\7.4\\s3e\\makefile_builder\\templates\\win8_csproj.pyc'
p281
F1411758010.0
sS'c:\\marmalade\\7.4\\s3e\\makefile_builder\\templates\\xcode.py'
p282
F1411756766.0
sS'c:\\marmalade\\7.4\\s3e\\makefile_builder\\templates\\ws8_vcxproj.pyc'
p283
F1411758010.0
sS'c:\\marmalade\\7.4\\s3e\\makefile_builder\\templates\\wp81_csproj.pyc'
p284
F1411758010.0
sS'c:\\marmalade\\7.4\\s3e\\makefile_builder\\mkb_upstream.pyc'
p285
F1411758008.0
sS'c:\\marmalade\\7.4\\s3e\\makefile_builder\\templates\\win32_vcxproj.pyc'
p286
F1411758010.0
sS'c:\\marmalade\\7.4\\s3e\\makefile_builder\\templates\\ws8_csproj.pyc'
p287
F1411758010.0
sS'c:\\marmalade\\7.4\\s3e\\makefile_builder\\docs\\parse_options.pyc'
p288
F1411758012.0
sS'c:\\marmalade\\7.4\\s3e\\makefile_builder\\templates\\Info.plist'
p289
F1411756764.0
sS'c:\\marmalade\\7.4\\s3e\\makefile_builder\\templates\\wp81_sln.pyc'
p290
F1411758010.0
sS'c:\\marmalade\\7.4\\s3e\\makefile_builder\\templates\\ws81_csproj_user.pyc'
p291
F1411758010.0
sS'c:\\marmalade\\7.4\\s3e\\makefile_builder\\templates\\ws81_vcxproj.pyc'
p292
F1411758010.0
sccopy_reg
_reconstructor
p293
(cmkb_main
MkbFile
p294
c__builtin__
object
p295
Ntp296
Rp297
(dp298
g5
(lp299
sS'target_name'
p300
S'HelloWorld'
p301
sS'current_file'
p302
g120
sS'package_path'
p303
(lp304
sS'post_build'
p305
(lp306
(lp307
S'c:/marmalade/7.4/s3e/tools'
p308
aS'C:\\Marmalade\\7.4\\s3e\\python\\python.exe .\\process_map.py "$(TargetPath)"'
p309
aa(S'c:\\marmalade\\7.4\\s3e\\bin'
p310
S'"s3e_plink" -l "$(TargetPath)" '
p311
g154
tp312
asS'librarys'
p313
(lp314
g293
(cmkb_main
Library
p315
g295
Ntp316
Rp317
(dp318
S'name'
p319
S'vc6_compat.lib'
p320
sS'expand_name'
p321
I00
sS'include_spec_rvct_objs'
p322
(lp323
sS'include_all_objs'
p324
I00
sS'share_arm'
p325
I00
sS'arch'
p326
S'x86'
p327
sS'nodebug'
p328
I00
sg35
Nsbag293
(g315
g295
Ntp329
Rp330
(dp331
g319
S's3e_cpp'
p332
sg321
I01
sg322
g323
sg324
I00
sg325
I00
sg326
Nsg328
I00
sg35
Nsbag293
(g315
g295
Ntp333
Rp334
(dp335
g319
S's3e'
p336
sg321
I01
sg322
(lp337
S'iwcrt.o'
p338
asg324
I00
sg325
I00
sg326
Nsg328
I00
sg35
Nsbag293
(g315
g295
Ntp339
Rp340
(dp341
g319
S's3e_api'
p342
sg321
I01
sg322
g323
sg324
I00
sg325
I00
sg326
S'x86'
p343
sg328
I01
sg35
Nsbag293
(g315
g295
Ntp344
Rp345
(dp346
g319
g342
sg321
I01
sg322
g323
sg324
I00
sg325
I00
sg326
S'!x86'
p347
sg328
I01
sg35
Nsbag293
(g315
g295
Ntp348
Rp349
(dp350
g319
S'stdc++'
p351
sg321
I00
sg322
g323
sg324
I00
sg325
I00
sg326
S'mips'
p352
sg328
I00
sg35
Nsbag293
(g315
g295
Ntp353
Rp354
(dp355
g319
S'c'
p356
sg321
I00
sg322
g323
sg324
I00
sg325
I00
sg326
S'mips'
p357
sg328
I00
sg35
Nsbag293
(g315
g295
Ntp358
Rp359
(dp360
g319
S'm'
p361
sg321
I00
sg322
g323
sg324
I00
sg325
I00
sg326
S'mips'
p362
sg328
I00
sg35
Nsbag293
(g315
g295
Ntp363
Rp364
(dp365
g319
S'gcc'
p366
sg321
I00
sg322
g323
sg324
I00
sg325
I00
sg326
S'mips'
p367
sg328
I00
sg35
Nsbag293
(g315
g295
Ntp368
Rp369
(dp370
g319
S'stdc++'
p371
sg321
I00
sg322
g323
sg324
I00
sg325
I00
sg326
S'gcc_x86_android'
p372
sg328
I00
sg35
Nsbag293
(g315
g295
Ntp373
Rp374
(dp375
g319
g356
sg321
I00
sg322
g323
sg324
I00
sg325
I00
sg326
S'gcc_x86_android'
p376
sg328
I00
sg35
Nsbag293
(g315
g295
Ntp377
Rp378
(dp379
g319
g361
sg321
I00
sg322
g323
sg324
I00
sg325
I00
sg326
S'gcc_x86_android'
p380
sg328
I00
sg35
Nsbag293
(g315
g295
Ntp381
Rp382
(dp383
g319
g366
sg321
I00
sg322
g323
sg324
I00
sg325
I00
sg326
S'gcc_x86_android'
p384
sg328
I00
sg35
NsbasS'library_paths'
p385
(lp386
g293
(cmkb_main
LibraryPath
p387
g295
Ntp388
Rp389
(dp390
S'expand_path'
p391
I01
sg319
S'c:/marmalade/7.4/s3e'
p392
sbasS'macros'
p393
(dp394
S'IW_PLATFORM_S3E'
p395
NsS'I3D_PLATFORM_S3E'
p396
NsS'S3E_INCLUDE_LEGACY'
p397
NsS'IW_SDK'
p398
NsS'__S3E__'
p399
NsS'_CRT_SECURE_NO_DEPRECATE'
p400
NsS'IW_APP_NAME'
p401
S'"HelloWorld"'
p402
sS'I3D_OS_S3E'
p403
NsS'IW_APP_VERSION'
p404
S'"1.0"'
p405
sS'IW_DEBUG'
p406
NssS'done_warnings'
p407
(dp408
sS'subprojects'
p409
(dp410
sS'deployments'
p411
(dp412
S'Default'
p413
g293
(cdeployment
Deployment
p414
g295
Ntp415
Rp416
(dp417
S'got_version'
p418
I0
sS'assets'
p419
g413
sS'mkb'
p420
g297
sS'target'
p421
Nsg326
(lp422
sS'options'
p423
(dp424
S'iphone-link-lib'
p425
(lp426
sS'game-icf'
p427
NsS'android-tm'
p428
NsS'winmobile-icon32'
p429
NsS'ws8-logo-image150x150'
p430
NsS'wp81-logo-image150x150'
p431
NsS'ws81-product-version'
p432
NsS'osx-ext-dll'
p433
(lp434
sS'iphone-provisioning-profile'
p435
NsS'ws8-splash-screen-image620x300'
p436
NsS'wp81-extra-pri'
p437
(lp438
sS'ws8-ext-capabilities'
p439
(lp440
sS'android-icon-hdpi'
p441
NsS'brew-icon-large'
p442
NsS'iphone-splash-full-orient'
p443
NsS'wp8-tile-fliptemplate-supports-large'
p444
NsS'iphone-show-status-bar'
p445
NsS'roku-requires-mkv'
p446
NsS'long-caption'
p447
NsS'android-pkgname'
p448
NsS'wp81-publisher-display-name'
p449
NsS'blackberry-permissions-read-device-identifying-information'
p450
NsS'ws81-certificate-end-date'
p451
NsS'psp-dlgcontentid'
p452
NsS'iphone-minimum-ios-version'
p453
NsS'target-folder'
p454
NsS'tizen-dist1-CA-path'
p455
NsS'symbian-icon2-format'
p456
NsS'tizen-author-key'
p457
NsS'firefoxos-icon-128X128'
p458
NsS'iphone-region'
p459
NsS'uiq3-icon3-mask'
p460
NsS'brew-encoding'
p461
NsS'android-x86'
p462
NsS'nds-initialcode'
p463
NsS'iphone-persistent-wifi'
p464
NsS'psp-snd0'
p465
NsS'roku-icon-focus-hd'
p466
NsS'winmobile-install-folder'
p467
NsS'android-external-res'
p468
(lp469
sS'ws8-product-version'
p470
NsS'brew-priviledges'
p471
NsS'iphone-icon-ipad-search'
p472
NsS'iphone-icon-ipad'
p473
NsS'roku-hidden'
p474
NsS'psp-titlename'
p475
NsS'wp81-product-version'
p476
NsS'symbian-icon1-mask'
p477
NsS'psp-parentallevel'
p478
NsS'splashscreen-use-all'
p479
NsS'wp8-author'
p480
NsS'symbian-disable-ecompxl'
p481
NsS'splashscreen-auto-onblack'
p482
NsS'win32-ext-dll'
p483
(lp484
sS'iphone-development-key'
p485
NsS'winmobile-icon48'
p486
NsS'android-unsigned'
p487
NsS'osx-appstore-category'
p488
NsS'version-revision'
p489
NsS'roku-icon-focus-sd'
p490
NsS'android-keystore'
p491
NsS'winmobile-png90'
p492
NsS'iphone-icon-ipad-high-res'
p493
NsS'iphone-disable-ipad'
p494
NsS'wp8-product-id'
p495
NsS'ws81-splash-screen-background'
p496
NsS'wp8-ext-capabilities'
p497
(lp498
sS'iphone-ipad-only'
p499
NsS'symbian-icon1-mask-black'
p500
NsS'iphone-nosign'
p501
NsS'iphone-bundle-localisations'
p502
NsS'winmobile-png60'
p503
NsS'blackberry-permissions-access-shared'
p504
NsS'blackberry-author'
p505
NsS'android-icon-xxxhdpi'
p506
NsS'olddeploytoolstyle'
p507
NsS'android_icon_gallery'
p508
NsS'wp81-splash-screen-background'
p509
NsS'winmobile-cab-compress'
p510
NsS'iphone-info-plist'
p511
NsS'ws81-ext-managed-dll'
p512
(lp513
sS'playbook-cskpass'
p514
NsS'ws8-distribution-pfx-password'
p515
NsS'symbian-key'
p516
NsS'app-icf'
p517
NsS'blackberry-storepass'
p518
NsS'wp8-tile-fliptemplate-back-title'
p519
NsS'brew-compress-loader'
p520
NsS'win32-pref-windowposy'
p521
NsS'win32-pref-windowposx'
p522
NsS'roku-requires-audiometadata'
p523
NsS'wp8-exclude-low-mem'
p524
NsS'iphone-icon-ipad-search-high-res'
p525
NsS'iphone-link-libdir'
p526
(lp527
sS'wp81-ext-capabilities'
p528
(lp529
sS'blackberry-permissions-read-geolocation'
p530
NsS'ws81-ext-device-capabilities'
p531
(lp532
sS'tizen-signed'
p533
NsS'android-extra-application-manifest'
p534
(lp535
sS'ws8-ext-native-dll'
p536
(lp537
sS'symbian-icon2-mask'
p538
NsS'iphone-backgroundmode-audio'
p539
NsS'webos-memory'
p540
NsS'android-keypass'
p541
NsS'name'
p542
NsS'uiq3-icon2-format'
p543
NsS'roku-splash-screen-sd'
p544
NsS'auto-derbh'
p545
NsS'roku-icon-side-sd'
p546
NsS'android-external-assets'
p547
(lp548
sS'nds-publicsavedatasize'
p549
NsS'splashscreen'
p550
NsS'brew-mif'
p551
NsS'iphone-icon-settings-high-res'
p552
NsS'android-manifest'
p553
NsS'ws81-splash-screen-image620x300'
p554
NsS'wp81-product-name'
p555
NsS's3e-compression'
p556
NsS'tizen-author-password'
p557
NsS'wp8-tile-fliptemplate-back-content'
p558
NsS'blackberry-extra-descriptor'
p559
(lp560
sS'symbian-icon1'
p561
NsS'symbian-icon2'
p562
NsS'android-extra-styles-file'
p563
NsS'wp81-publisher-id'
p564
NsS'nds-bannertitle-jp'
p565
NsS'wp81-logo-image44x44'
p566
NsS'osx-sign-for-store'
p567
NsS'symbian7-uid'
p568
NsS'wp8-tile-fliptemplate-large-back-content'
p569
NsS'wp81-phone-publisher-id'
p570
NsS'nds-bannertitle-cn'
p571
NsS'iphone-distribution-key'
p572
NsS'android-icon-gallery'
p573
NsS'blackberry-keystore'
p574
NsS'ws8-extra-res'
p575
(lp576
sS'caption'
p577
NsS'android-extra-manifest'
p578
(lp579
sS'wp81-ext-sdk-ref'
p580
(lp581
sS'android-icon-xxhdpi'
p582
NsS'version-minor'
p583
NsS'iphone-link-libdirs'
p584
(lp585
sS'iphone-icon-large'
p586
NsS'symbian-keypwd'
p587
NsS'symbian8-uid'
p588
NsS'symbian-cert-key'
p589
NsS'winmobile-ampd-part-number'
p590
NsS'arch'
p591
NsS'nds-romheadertemplate'
p592
NsS'webos-icon'
p593
NsS'wp81-ext-device-capabilities'
p594
(lp595
sS'psp-dlgprotectdocument'
p596
NsS'ws8-splash-screen-background'
p597
NsS'android-icon-mdpi'
p598
NsS'nds-icon'
p599
NsS'ws8-custom-manifest-fill'
p600
NsS'iphone-development-cert'
p601
NsS'blackberry-phone-icon'
p602
NsS'iphone-enable-4inch-retina'
p603
NsS'ws8-custom-manifest'
p604
NsS'version-major'
p605
NsS'wp8-genre-isgame'
p606
NsS'uiq3-uid'
p607
NsS'iphone-splash-retina-generate'
p608
NsS'tizen-hw-acceleration'
p609
NsS'iphone_bundle_localisations'
p610
NsS'tizen-dist1-key'
p611
NsS'wp81-custom-manifest-fill'
p612
NsS'wp8-custom-manifest'
p613
NsS'nds-bannertitle-ge'
p614
NsS'iphone-sign-for-distribution'
p615
NsS'wp8-tile-fliptemplate-medium-back-image'
p616
NsS'wp8-publisher-id'
p617
NsS'icon'
p618
NsS'wp8-exclude-wxga'
p619
NsS'wp81-identity-name'
p620
NsS'uiq3-icon2-mask'
p621
NsS'iphone-splashscreen-portrait'
p622
NsS'iphone-icon-high-res'
p623
NsS'ws81-distribution-pfx-password'
p624
NsS'playbook-author'
p625
NsS'android-icon-xhdpi'
p626
NsS'linux-ext-lib'
p627
(lp628
sS'blackberry-permissions-access-internet'
p629
NsS'wp8-exclude-720p'
p630
NsS'lgtv-use-drm'
p631
NsS'symbian-platsecflags'
p632
NsS'ws8-description'
p633
NsS'blackberry-playbook-icon'
p634
NsS'copyright'
p635
NsS'win32-gles-directory'
p636
NsS'version'
p637
NsS'ws81-logo-image150x150'
p638
NsS'osx-signing-identity-app'
p639
NsS'tizen-project-url'
p640
NsS'symbian-icon-svg'
p641
NsS'android-aliasname'
p642
NsS'psp-dlgmanual'
p643
NsS'brew-uid'
p644
NsS'symbian-locationsupport'
p645
NsS'wp81-logo-image50x50'
p646
NsS'ws8-ext-managed-dll'
p647
(lp648
sS'nds-bannertitle-it'
p649
NsS'ws81-custom-manifest-fill'
p650
NsS'ws8-ext-sdk-manifest-part'
p651
(lp652
sS'uiq3-icon1-mask'
p653
NsS'winmobile-icon16'
p654
NsS'ws8-product-name'
p655
NsS'blackberry-cskpass'
p656
NsS'winmobile-start-menu-folder'
p657
NsS'brew-clsid'
p658
NsS'roku-requires-bluetooth'
p659
NsS'ws8-ext-device-capabilities'
p660
(lp661
sS'blackberry-permissions-use-camera'
p662
NsS'ws81-extra-pri'
p663
(lp664
sS'iphone-prerendered-icon'
p665
NsS'iphone-appid'
p666
NsS'ws8-identity-name'
p667
NsS'tizen-dist2-CA-path'
p668
NsS'android-external-jars'
p669
(lp670
sS'winmobile-icon64'
p671
NsS'blackberry-permissions-post-notification'
p672
NsS'winmobile-setup-dll'
p673
NsS'firefoxos-manifest'
p674
NsS'win8-winrt-extra-res'
p675
(lp676
sS'wp81-ext-sdk-manifest-part'
p677
(lp678
sS'symbian9-uid'
p679
NsS'iphone-icon-ipad-ios7'
p680
NsS'winmobile-trace-file'
p681
NsS'roku-splash-color'
p682
NsS'psp-appversion'
p683
NsS'ws8-publisher-id'
p684
NsS'android-supports-gl-texture'
p685
(lp686
sS'winmobile-png45'
p687
NsS'wp81-extra-res'
p688
(lp689
sS'android-storepass'
p690
NsS'osx-signing-identity-inst'
p691
NsS'android-custom-activity'
p692
NsS'psp-discversion'
p693
NsS'wp81-ext-managed-dll'
p694
(lp695
sS'psp-copyright'
p696
NsS'embed-icf'
p697
NsS'tizen-manifest'
p698
NsS'osx-icon'
p699
NsS'webos-appinfo'
p700
NsS'psp-dlghealthwarning'
p701
NsS'webos-appid'
p702
NsS'roku-icon-side-hd'
p703
NsS'iphone-icon-ipad-search-high-res-ios7'
p704
NsS'ws81-ext-sdk-manifest-part'
p705
(lp706
sS'loader_name_prefix'
p707
NsS'nds-titlename'
p708
NsS'ws81-logo-image50x50'
p709
NsS'wp81-custom-manifest'
p710
NsS'osx-entitlements-plist'
p711
NsS'psp-dlgicon0'
p712
NsS'winmobile-nouninstall'
p713
NsS'psp-discid'
p714
NsS'tizen-dist2-password'
p715
NsS'ws8-ext-sdk-ref'
p716
(lp717
sS'iphone-extra-string'
p718
(lp719
sS'version-string'
p720
NsS'iphone-icon-high-res-ios7'
p721
NsS'blackberry-permissions-record-audio'
p722
NsS'ws8-certificate-end-date'
p723
NsS'tizen-so'
p724
(lp725
sS'wp8-tile-fliptemplate-small-image'
p726
NsS'playbook-authorid'
p727
NsS'iphone-signing-identity'
p728
NsS'roku-persist-quota'
p729
NsS'nds-bannertitle-fr'
p730
NsS'ws8-distribution-pfx'
p731
NsS'ws8-publisher-display-name'
p732
NsS'brew-icon-small'
p733
NsS'psp-dlgpic2'
p734
NsS'psp-dlgpic0'
p735
NsS'psp-pic0'
p736
NsS'psp-pic1'
p737
NsS'win32-pref-windowtitle'
p738
NsS'psp-icon0'
p739
NsS'psp-icon1'
p740
NsS'ws81-identity-name'
p741
NsS'winmobile-icon'
p742
NsS'iphone-no-splash'
p743
NsS'iphone-splash'
p744
NsS'iphone-app-fonts'
p745
NsS'wp8-ext-native-dll'
p746
(lp747
sS'wp81-splash-screen-image480x800'
p748
NsS'ws81-distribution-cer'
p749
NsS'uiq3-icon2'
p750
NsS'uiq3-icon3'
p751
NsS'uiq3-icon1'
p752
NsS'uiq3-icon1-format'
p753
NsS'ws8-logo-image50x50'
p754
NsS'symbian-icon2-mask-black'
p755
NsS'symbian-run-on-install'
p756
NsS'wp81-description'
p757
NsS'ws81-publisher-display-name'
p758
NsS'firefoxos-xulrunner'
p759
NsS'symbian-soundrecordsupport'
p760
NsS'nds-bannertitle-sp'
p761
NsS'psp-producer'
p762
NsS'iphone-apple-wwdr-cert'
p763
NsS'android-icon-nonstandard'
p764
NsS'win32-pref-processtitle'
p765
NsS'nds-bannertitle-hn'
p766
NsS'tizen-dist2-key'
p767
NsS'brew-depends'
p768
NsS'ws81-custom-manifest'
p769
NsS'iphone-icon-ipad-search-ios7'
p770
NsS'brew-icon-medium'
p771
NsS'iphone-bundle-url-name'
p772
NsS'wp8-tile-fliptemplate-large-front-image'
p773
NsS'tizen-dist2-CA-root-path'
p774
NsS'ws81-description'
p775
NsS'uiq3-icon3-format'
p776
NsS'ws81-logo-image30x30'
p777
NsS'win8-phone-extra-res'
p778
(lp779
sS'iphone-signing-host'
p780
NsS'tizen-icon'
p781
NsS'osx-info-plist'
p782
NsS'symbian-icon1-format'
p783
NsS'win8-store-extra-res'
p784
(lp785
sS'blackberry-authorid'
p786
NsS'ws81-publisher-id'
p787
NsS'ws81-distribution-pfx'
p788
NsS'wp8-description'
p789
NsS'iphone-link-opts'
p790
(lp791
sS'ws81-ext-sdk-ref'
p792
(lp793
sS'roku-splash-min-time'
p794
NsS'wp8-tile-fliptemplate-medium-front-image'
p795
NsS'provider'
p796
NsS'playbook-keystore'
p797
NsS'tizen-appid'
p798
NsS'wp8-extra-res'
p799
(lp800
sS'symbian-osexecsupport'
p801
NsS'android-install-location'
p802
NsS'nds-privatesavedatasize'
p803
NsS'playbook-storepass'
p804
NsS'android-icon-ldpi'
p805
NsS'manufacturer'
p806
NsS'itunes-artwork'
p807
NsS'iphone-extra-sections'
p808
NsS'ws81-product-name'
p809
NsS'ws81-ext-native-dll'
p810
(lp811
sS'ws8-extra-pri'
p812
(lp813
sS'win32-icon'
p814
NsS'ws8-logo-image30x30'
p815
NsS'wp8-ext-managed-dll'
p816
(lp817
sS'iphone-splashscreen-landscape'
p818
NsS'symbian-maxheapsize'
p819
NsS'nds-makercode'
p820
NsS'priv-sign-key'
p821
NsS'networking'
p822
NsS'android-icon'
p823
NsS'iphone-icon-settings'
p824
NsS'wp81-phone-product-id'
p825
NsS'firefoxos-icon-60X60'
p826
NsS'iphone-distribution-cert'
p827
NsS'android_extra_strings'
p828
NsS'nds-bannertitle-en'
p829
NsS'wp8-tile-fliptemplate-title'
p830
NsS'android-so'
p831
(lp832
sS'wp8-higher-mem'
p833
NsS'wp8-ext-sdk-ref'
p834
(lp835
sS'roku-splash-screen-hd'
p836
NsS'iphone-bundle-url-schemes'
p837
NsS'roku-screensaver-private'
p838
NsS'osx-extra-res'
p839
(lp840
sS'ws81-extra-res'
p841
(lp842
sS'playbook-icon'
p843
NsS'uid'
p844
NsS'pkguid-as-uid'
p845
NsS'wp81-ext-native-dll'
p846
(lp847
sS'tizen-dist1-password'
p848
NsS'roku-screensaver-title'
p849
NsS'osx-minimum-osx-version'
p850
NsS'symbian-cert'
p851
NsS'iphone-icon'
p852
NsS'ws81-ext-capabilities'
p853
(lp854
sS'ws8-distribution-cer'
p855
NsS'playbook-access-shared'
p856
NsS'iphone-icon-ipad-high-res-ios7'
p857
NsS'iphone-link-libs'
p858
(lp859
sS'wp8-exclude-wvga'
p860
NsS'assets'
p861
NsS'wp8-tile-fliptemplate-large-back-image'
p862
NsS'wp8-custom-manifest-fill'
p863
NsS'pub-sign-key'
p864
NsS'android-extra-strings'
p865
NsS'tizen-author-CA-path'
p866
Nssg319
g413
sbssS'platform'
p867
S'S3E'
p868
sg62
S'1.0'
p869
sS'arcade_platform'
p870
g4
sS'extensions'
p871
(dp872
sS'source_groups_tree'
p873
(dp874
S'Source'
p875
(dp876
S'e:/Documents/Michiel/Programmeren/Marmalade/HelloWorld/src/Main.cpp'
p877
(lp878
I1
a(dp879
asS'UI'
p880
(dp881
S'e:/Documents/Michiel/Programmeren/Marmalade/HelloWorld/src/MainMenu.cpp'
p882
(lp883
I1
ag879
asS'e:/Documents/Michiel/Programmeren/Marmalade/HelloWorld/src/MainMenu.h'
p884
(lp885
I1
ag879
assS'e:/Documents/Michiel/Programmeren/Marmalade/HelloWorld/src/HelloWorld.cpp'
p886
(lp887
I1
ag879
asssS'files'
p888
(dp889
S'dlfcn.h'
p890
g293
(cmkb_main
File
p891
g295
Ntp892
Rp893
(dp894
S'flags'
p895
(dp896
sS'group'
p897
(lp898
S"'Marmalade System (S3E)'"
p899
aS'stdc headers'
p900
asg319
S'c:/marmalade/7.4/s3e/h/std/dlfcn.h'
p901
sbsS'iterator'
p902
g293
(g891
g295
Ntp903
Rp904
(dp905
g895
g896
sg897
(lp906
g899
aS'stdc headers'
p907
aS'c++'
p908
asg319
S'c:/marmalade/7.4/s3e/h/std/c++/iterator'
p909
sbsS'math_rvct.h'
p910
g293
(g891
g295
Ntp911
Rp912
(dp913
g895
g896
sg897
g898
sg319
S'c:/marmalade/7.4/s3e/h/std/math_rvct.h'
p914
sbsS'pthread_alloc'
p915
g293
(g891
g295
Ntp916
Rp917
(dp918
g895
g896
sg897
g906
sg319
S'c:/marmalade/7.4/s3e/h/std/c++/pthread_alloc'
p919
sbsS'ctype.h'
p920
g293
(g891
g295
Ntp921
Rp922
(dp923
g895
g896
sg897
g898
sg319
S'c:/marmalade/7.4/s3e/h/std/ctype.h'
p924
sbsS'ctime'
p925
g293
(g891
g295
Ntp926
Rp927
(dp928
g895
g896
sg897
g906
sg319
S'c:/marmalade/7.4/s3e/h/std/c++/ctime'
p929
sbsS's3e.h'
p930
g293
(g891
g295
Ntp931
Rp932
(dp933
g895
g896
sg897
(lp934
g899
asg319
S'c:/marmalade/7.4/s3e/h/s3e.h'
p935
sbsS'errno.h'
p936
g293
(g891
g295
Ntp937
Rp938
(dp939
g895
g896
sg897
g898
sg319
S'c:/marmalade/7.4/s3e/h/std/errno.h'
p940
sbsS's3ePointer.h'
p941
g293
(g891
g295
Ntp942
Rp943
(dp944
g895
g896
sg897
g934
sg319
S'c:/marmalade/7.4/s3e/h/s3ePointer.h'
p945
sbsS's3eImagePicker.h'
p946
g293
(g891
g295
Ntp947
Rp948
(dp949
g895
g896
sg897
(lp950
g899
aS'Extensions'
p951
asg319
S'c:/marmalade/7.4/s3e/h/ext/s3eImagePicker.h'
p952
sbsS'typeinfo'
p953
g293
(g891
g295
Ntp954
Rp955
(dp956
g895
g896
sg897
g906
sg319
S'c:/marmalade/7.4/s3e/h/std/c++/typeinfo'
p957
sbsS'fstream.h'
p958
g293
(g891
g295
Ntp959
Rp960
(dp961
g895
g896
sg897
g906
sg319
S'c:/marmalade/7.4/s3e/h/std/c++/fstream.h'
p962
sbsS'cfloat'
p963
g293
(g891
g295
Ntp964
Rp965
(dp966
g895
g896
sg897
g906
sg319
S'c:/marmalade/7.4/s3e/h/std/c++/cfloat'
p967
sbsS'stdio_streambuf'
p968
g293
(g891
g295
Ntp969
Rp970
(dp971
g895
g896
sg897
g906
sg319
S'c:/marmalade/7.4/s3e/h/std/c++/stdio_streambuf'
p972
sbsS'MainMenu.cpp'
p973
g293
(g891
g295
Ntp974
Rp975
(dp976
g895
g879
sg897
(lp977
g875
ag880
asg319
g882
sbsS'wctype.h'
p978
g293
(g891
g295
Ntp979
Rp980
(dp981
g895
g896
sg897
g898
sg319
S'c:/marmalade/7.4/s3e/h/std/wctype.h'
p982
sbsS'sched.h'
p983
g293
(g891
g295
Ntp984
Rp985
(dp986
g895
g896
sg897
g898
sg319
S'c:/marmalade/7.4/s3e/h/std/sched.h'
p987
sbsS'valarray'
p988
g293
(g891
g295
Ntp989
Rp990
(dp991
g895
g896
sg897
g906
sg319
S'c:/marmalade/7.4/s3e/h/std/c++/valarray'
p992
sbsS'cassert'
p993
g293
(g891
g295
Ntp994
Rp995
(dp996
g895
g896
sg897
g906
sg319
S'c:/marmalade/7.4/s3e/h/std/c++/cassert'
p997
sbsS'grp.h'
p998
g293
(g891
g295
Ntp999
Rp1000
(dp1001
g895
g896
sg897
g898
sg319
S'c:/marmalade/7.4/s3e/h/std/grp.h'
p1002
sbsS'complex'
p1003
g293
(g891
g295
Ntp1004
Rp1005
(dp1006
g895
g896
sg897
g906
sg319
S'c:/marmalade/7.4/s3e/h/std/c++/complex'
p1007
sbsS'istream'
p1008
g293
(g891
g295
Ntp1009
Rp1010
(dp1011
g895
g896
sg897
g906
sg319
S'c:/marmalade/7.4/s3e/h/std/c++/istream'
p1012
sbsS'poll.h'
p1013
g293
(g891
g295
Ntp1014
Rp1015
(dp1016
g895
g896
sg897
g898
sg319
S'c:/marmalade/7.4/s3e/h/std/poll.h'
p1017
sbsS's3eAccelerometer.h'
p1018
g293
(g891
g295
Ntp1019
Rp1020
(dp1021
g895
g896
sg897
g934
sg319
S'c:/marmalade/7.4/s3e/h/s3eAccelerometer.h'
p1022
sbsS'iostream.h'
p1023
g293
(g891
g295
Ntp1024
Rp1025
(dp1026
g895
g896
sg897
g906
sg319
S'c:/marmalade/7.4/s3e/h/std/c++/iostream.h'
p1027
sbsS'setjmp.h'
p1028
g293
(g891
g295
Ntp1029
Rp1030
(dp1031
g895
g896
sg897
g898
sg319
S'c:/marmalade/7.4/s3e/h/std/setjmp.h'
p1032
sbsS'cstddef'
p1033
g293
(g891
g295
Ntp1034
Rp1035
(dp1036
g895
g896
sg897
g906
sg319
S'c:/marmalade/7.4/s3e/h/std/c++/cstddef'
p1037
sbsS'string'
p1038
g293
(g891
g295
Ntp1039
Rp1040
(dp1041
g895
g896
sg897
g906
sg319
S'c:/marmalade/7.4/s3e/h/std/c++/string'
p1042
sbsS'mman.h'
p1043
g293
(g891
g295
Ntp1044
Rp1045
(dp1046
g895
g896
sg897
(lp1047
g899
aS'stdc headers'
p1048
aS'sys'
p1049
asg319
S'c:/marmalade/7.4/s3e/h/std/sys/mman.h'
p1050
sbsS'Main.cpp'
p1051
g293
(g891
g295
Ntp1052
Rp1053
(dp1054
g895
g879
sg897
(lp1055
S'Source'
p1056
asg319
g877
sbsS'libgen.h'
p1057
g293
(g891
g295
Ntp1058
Rp1059
(dp1060
g895
g896
sg897
g898
sg319
S'c:/marmalade/7.4/s3e/h/std/libgen.h'
p1061
sbsS'utsname.h'
p1062
g293
(g891
g295
Ntp1063
Rp1064
(dp1065
g895
g896
sg897
g1047
sg319
S'c:/marmalade/7.4/s3e/h/std/sys/utsname.h'
p1066
sbsS'wait.h'
p1067
g293
(g891
g295
Ntp1068
Rp1069
(dp1070
g895
g896
sg897
g1047
sg319
S'c:/marmalade/7.4/s3e/h/std/sys/wait.h'
p1071
sbsS'iomanip'
p1072
g293
(g891
g295
Ntp1073
Rp1074
(dp1075
g895
g896
sg897
g906
sg319
S'c:/marmalade/7.4/s3e/h/std/c++/iomanip'
p1076
sbsS'istream.h'
p1077
g293
(g891
g295
Ntp1078
Rp1079
(dp1080
g895
g896
sg897
g906
sg319
S'c:/marmalade/7.4/s3e/h/std/c++/istream.h'
p1081
sbsS'cwchar'
p1082
g293
(g891
g295
Ntp1083
Rp1084
(dp1085
g895
g896
sg897
g906
sg319
S'c:/marmalade/7.4/s3e/h/std/c++/cwchar'
p1086
sbsS'stdint.h'
p1087
g293
(g891
g295
Ntp1088
Rp1089
(dp1090
g895
g896
sg897
g898
sg319
S'c:/marmalade/7.4/s3e/h/std/stdint.h'
p1091
sbsS'semaphore.h'
p1092
g293
(g891
g295
Ntp1093
Rp1094
(dp1095
g895
g896
sg897
g898
sg319
S'c:/marmalade/7.4/s3e/h/std/semaphore.h'
p1096
sbsS'iosfwd'
p1097
g293
(g891
g295
Ntp1098
Rp1099
(dp1100
g895
g896
sg897
g906
sg319
S'c:/marmalade/7.4/s3e/h/std/c++/iosfwd'
p1101
sbsS'gl2.h'
p1102
g293
(g891
g295
Ntp1103
Rp1104
(dp1105
g895
g896
sg897
(lp1106
g899
aS'GL'
p1107
aS'GLES 2.0'
p1108
asg319
S'c:/marmalade/7.4/s3e/h/GLES2/gl2.h'
p1109
sbsS'assert.h'
p1110
g293
(g891
g295
Ntp1111
Rp1112
(dp1113
g895
g896
sg897
g898
sg319
S'c:/marmalade/7.4/s3e/h/std/assert.h'
p1114
sbsS'param.h'
p1115
g293
(g891
g295
Ntp1116
Rp1117
(dp1118
g895
g896
sg897
g1047
sg319
S'c:/marmalade/7.4/s3e/h/std/sys/param.h'
p1119
sbsS'dir.h'
p1120
g293
(g891
g295
Ntp1121
Rp1122
(dp1123
g895
g896
sg897
g1047
sg319
S'c:/marmalade/7.4/s3e/h/std/sys/dir.h'
p1124
sbsS'locale.h'
p1125
g293
(g891
g295
Ntp1126
Rp1127
(dp1128
g895
g896
sg897
g898
sg319
S'c:/marmalade/7.4/s3e/h/std/locale.h'
p1129
sbsS'vector'
p1130
g293
(g891
g295
Ntp1131
Rp1132
(dp1133
g895
g896
sg897
g906
sg319
S'c:/marmalade/7.4/s3e/h/std/c++/vector'
p1134
sbsS'ostream'
p1135
g293
(g891
g295
Ntp1136
Rp1137
(dp1138
g895
g896
sg897
g906
sg319
S'c:/marmalade/7.4/s3e/h/std/c++/ostream'
p1139
sbsS'termios.h'
p1140
g293
(g891
g295
Ntp1141
Rp1142
(dp1143
g895
g896
sg897
g898
sg319
S'c:/marmalade/7.4/s3e/h/std/termios.h'
p1144
sbsS'cwctype'
p1145
g293
(g891
g295
Ntp1146
Rp1147
(dp1148
g895
g896
sg897
g906
sg319
S'c:/marmalade/7.4/s3e/h/std/c++/cwctype'
p1149
sbsS'streambuf.h'
p1150
g293
(g891
g295
Ntp1151
Rp1152
(dp1153
g895
g896
sg897
g906
sg319
S'c:/marmalade/7.4/s3e/h/std/c++/streambuf.h'
p1154
sbsS'stdiostream.h'
p1155
g293
(g891
g295
Ntp1156
Rp1157
(dp1158
g895
g896
sg897
g906
sg319
S'c:/marmalade/7.4/s3e/h/std/c++/stdiostream.h'
p1159
sbsS'sstream'
p1160
g293
(g891
g295
Ntp1161
Rp1162
(dp1163
g895
g896
sg897
g906
sg319
S'c:/marmalade/7.4/s3e/h/std/c++/sstream'
p1164
sbsS'mem.h'
p1165
g293
(g891
g295
Ntp1166
Rp1167
(dp1168
g895
g896
sg897
g906
sg319
S'c:/marmalade/7.4/s3e/h/std/c++/mem.h'
p1169
sbsS'slist'
p1170
g293
(g891
g295
Ntp1171
Rp1172
(dp1173
g895
g896
sg897
g906
sg319
S'c:/marmalade/7.4/s3e/h/std/c++/slist'
p1174
sbsS's3eCompass.h'
p1175
g293
(g891
g295
Ntp1176
Rp1177
(dp1178
g895
g896
sg897
g934
sg319
S'c:/marmalade/7.4/s3e/h/s3eCompass.h'
p1179
sbsS'prctl.h'
p1180
g293
(g891
g295
Ntp1181
Rp1182
(dp1183
g895
g896
sg897
g1047
sg319
S'c:/marmalade/7.4/s3e/h/std/sys/prctl.h'
p1184
sbsS'locale'
p1185
g293
(g891
g295
Ntp1186
Rp1187
(dp1188
g895
g896
sg897
g906
sg319
S'c:/marmalade/7.4/s3e/h/std/c++/locale'
p1189
sbsS'list'
p1190
g293
(g891
g295
Ntp1191
Rp1192
(dp1193
g895
g896
sg897
g906
sg319
S'c:/marmalade/7.4/s3e/h/std/c++/list'
p1194
sbsS'climits'
p1195
g293
(g891
g295
Ntp1196
Rp1197
(dp1198
g895
g896
sg897
g906
sg319
S'c:/marmalade/7.4/s3e/h/std/c++/climits'
p1199
sbsS's3e.config.txt'
p1200
g293
(g891
g295
Ntp1201
Rp1202
(dp1203
g895
g896
sg897
g934
sg319
S'c:/marmalade/7.4/s3e/s3e.config.txt'
p1204
sbsS'numeric'
p1205
g293
(g891
g295
Ntp1206
Rp1207
(dp1208
g895
g896
sg897
g906
sg319
S'c:/marmalade/7.4/s3e/h/std/c++/numeric'
p1209
sbsS'utime.h'
p1210
g293
(g891
g295
Ntp1211
Rp1212
(dp1213
g895
g896
sg897
g898
sg319
S'c:/marmalade/7.4/s3e/h/std/utime.h'
p1214
sbsS'cstdio'
p1215
g293
(g891
g295
Ntp1216
Rp1217
(dp1218
g895
g896
sg897
g906
sg319
S'c:/marmalade/7.4/s3e/h/std/c++/cstdio'
p1219
sbsS's3eVibra.h'
p1220
g293
(g891
g295
Ntp1221
Rp1222
(dp1223
g895
g896
sg897
g934
sg319
S'c:/marmalade/7.4/s3e/h/s3eVibra.h'
p1224
sbsS'fnmatch.h'
p1225
g293
(g891
g295
Ntp1226
Rp1227
(dp1228
g895
g896
sg897
g898
sg319
S'c:/marmalade/7.4/s3e/h/std/fnmatch.h'
p1229
sbsS'stack'
p1230
g293
(g891
g295
Ntp1231
Rp1232
(dp1233
g895
g896
sg897
g906
sg319
S'c:/marmalade/7.4/s3e/h/std/c++/stack'
p1234
sbsS'strings.h'
p1235
g293
(g891
g295
Ntp1236
Rp1237
(dp1238
g895
g896
sg897
g898
sg319
S'c:/marmalade/7.4/s3e/h/std/strings.h'
p1239
sbsS'inttypes.h'
p1240
g293
(g891
g295
Ntp1241
Rp1242
(dp1243
g895
g896
sg897
g898
sg319
S'c:/marmalade/7.4/s3e/h/std/inttypes.h'
p1244
sbsS'HelloWorld.cpp'
p1245
g293
(g891
g295
Ntp1246
Rp1247
(dp1248
g895
g879
sg897
g1055
sg319
g886
sbsS'dirent.h'
p1249
g293
(g891
g295
Ntp1250
Rp1251
(dp1252
g895
g896
sg897
g898
sg319
S'c:/marmalade/7.4/s3e/h/std/dirent.h'
p1253
sbsS's3eExt.h'
p1254
g293
(g891
g295
Ntp1255
Rp1256
(dp1257
g895
g896
sg897
g934
sg319
S'c:/marmalade/7.4/s3e/h/s3eExt.h'
p1258
sbsS's3eSurface.h'
p1259
g293
(g891
g295
Ntp1260
Rp1261
(dp1262
g895
g896
sg897
g934
sg319
S'c:/marmalade/7.4/s3e/h/s3eSurface.h'
p1263
sbsS'new'
p1264
g293
(g891
g295
Ntp1265
Rp1266
(dp1267
g895
g896
sg897
g906
sg319
S'c:/marmalade/7.4/s3e/h/std/c++/new'
p1268
sbsS'stdlib.h'
p1269
g293
(g891
g295
Ntp1270
Rp1271
(dp1272
g895
g896
sg897
g898
sg319
S'c:/marmalade/7.4/s3e/h/std/stdlib.h'
p1273
sbsS'utility'
p1274
g293
(g891
g295
Ntp1275
Rp1276
(dp1277
g895
g896
sg897
g906
sg319
S'c:/marmalade/7.4/s3e/h/std/c++/utility'
p1278
sbsS'stddef.h'
p1279
g293
(g891
g295
Ntp1280
Rp1281
(dp1282
g895
g896
sg897
g898
sg319
S'c:/marmalade/7.4/s3e/h/std/stddef.h'
p1283
sbsS's3eWindow.h'
p1284
g293
(g891
g295
Ntp1285
Rp1286
(dp1287
g895
g896
sg897
g950
sg319
S'c:/marmalade/7.4/s3e/h/ext/s3eWindow.h'
p1288
sbsS's3eMetrics.h'
p1289
g293
(g891
g295
Ntp1290
Rp1291
(dp1292
g895
g896
sg897
g950
sg319
S'c:/marmalade/7.4/s3e/h/ext/s3eMetrics.h'
p1293
sbsS'iostream'
p1294
g293
(g891
g295
Ntp1295
Rp1296
(dp1297
g895
g896
sg897
g906
sg319
S'c:/marmalade/7.4/s3e/h/std/c++/iostream'
p1298
sbsS'glplatform.h'
p1299
g293
(g891
g295
Ntp1300
Rp1301
(dp1302
g895
g896
sg897
(lp1303
g899
aS'GL'
p1304
aS'GLES 1.x'
p1305
asg319
S'c:/marmalade/7.4/s3e/h/GLES/glplatform.h'
p1306
sbsS'app.icf'
p1307
g293
(g891
g295
Ntp1308
Rp1309
(dp1310
g895
(dp1311
sg897
g4
sg319
S'e:/Documents/Michiel/Programmeren/Marmalade/HelloWorld/data/app.icf'
p1312
sbsS'ucontext.h'
p1313
g293
(g891
g295
Ntp1314
Rp1315
(dp1316
g895
g896
sg897
g898
sg319
S'c:/marmalade/7.4/s3e/h/std/ucontext.h'
p1317
sbsS'setjmp_win32.h'
p1318
g293
(g891
g295
Ntp1319
Rp1320
(dp1321
g895
g896
sg897
g898
sg319
S'c:/marmalade/7.4/s3e/h/std/setjmp_win32.h'
p1322
sbsS's3eOSExec.h'
p1323
g293
(g891
g295
Ntp1324
Rp1325
(dp1326
g895
g896
sg897
g950
sg319
S'c:/marmalade/7.4/s3e/h/ext/s3eOSExec.h'
p1327
sbsS'string.h'
p1328
g293
(g891
g295
Ntp1329
Rp1330
(dp1331
g895
g896
sg897
g898
sg319
S'c:/marmalade/7.4/s3e/h/std/string.h'
p1332
sbsS'alloca.h'
p1333
g293
(g891
g295
Ntp1334
Rp1335
(dp1336
g895
g896
sg897
g898
sg319
S'c:/marmalade/7.4/s3e/h/std/alloca.h'
p1337
sbsS'float.h'
p1338
g293
(g891
g295
Ntp1339
Rp1340
(dp1341
g895
g896
sg897
g898
sg319
S'c:/marmalade/7.4/s3e/h/std/float.h'
p1342
sbsS'iomanip.h'
p1343
g293
(g891
g295
Ntp1344
Rp1345
(dp1346
g895
g896
sg897
g906
sg319
S'c:/marmalade/7.4/s3e/h/std/c++/iomanip.h'
p1347
sbsS'limits'
p1348
g293
(g891
g295
Ntp1349
Rp1350
(dp1351
g895
g896
sg897
g906
sg319
S'c:/marmalade/7.4/s3e/h/std/c++/limits'
p1352
sbsS'gl2platform.h'
p1353
g293
(g891
g295
Ntp1354
Rp1355
(dp1356
g895
g896
sg897
g1106
sg319
S'c:/marmalade/7.4/s3e/h/GLES2/gl2platform.h'
p1357
sbsS'queue'
p1358
g293
(g891
g295
Ntp1359
Rp1360
(dp1361
g895
g896
sg897
g906
sg319
S'c:/marmalade/7.4/s3e/h/std/c++/queue'
p1362
sbsS's3eSecureStorage.h'
p1363
g293
(g891
g295
Ntp1364
Rp1365
(dp1366
g895
g896
sg897
g934
sg319
S'c:/marmalade/7.4/s3e/h/s3eSecureStorage.h'
p1367
sbsS'time_1.h'
p1368
g293
(g891
g295
Ntp1369
Rp1370
(dp1371
g895
g896
sg897
g1047
sg319
S'c:/marmalade/7.4/s3e/h/std/sys/time.h'
p1372
sbsS's3eLicense.h'
p1373
g293
(g891
g295
Ntp1374
Rp1375
(dp1376
g895
g896
sg897
g934
sg319
S'c:/marmalade/7.4/s3e/h/s3eLicense.h'
p1377
sbsS'fstream'
p1378
g293
(g891
g295
Ntp1379
Rp1380
(dp1381
g895
g896
sg897
g906
sg319
S'c:/marmalade/7.4/s3e/h/std/c++/fstream'
p1382
sbsS's3eCameraCapture.h'
p1383
g293
(g891
g295
Ntp1384
Rp1385
(dp1386
g895
g896
sg897
g950
sg319
S'c:/marmalade/7.4/s3e/h/ext/s3eCameraCapture.h'
p1387
sbsS'eglext.h'
p1388
g293
(g891
g295
Ntp1389
Rp1390
(dp1391
g895
g896
sg897
(lp1392
g899
aS'GL'
p1393
aS'EGL'
p1394
asg319
S'c:/marmalade/7.4/s3e/h/EGL/eglext.h'
p1395
sbsS'bitset'
p1396
g293
(g891
g295
Ntp1397
Rp1398
(dp1399
g895
g896
sg897
g906
sg319
S'c:/marmalade/7.4/s3e/h/std/c++/bitset'
p1400
sbsS'sendfile.h'
p1401
g293
(g891
g295
Ntp1402
Rp1403
(dp1404
g895
g896
sg897
g1047
sg319
S'c:/marmalade/7.4/s3e/h/std/sys/sendfile.h'
p1405
sbsS's3eTimer.h'
p1406
g293
(g891
g295
Ntp1407
Rp1408
(dp1409
g895
g896
sg897
g934
sg319
S'c:/marmalade/7.4/s3e/h/s3eTimer.h'
p1410
sbsS'socket.h'
p1411
g293
(g891
g295
Ntp1412
Rp1413
(dp1414
g895
g896
sg897
g1047
sg319
S'c:/marmalade/7.4/s3e/h/std/sys/socket.h'
p1415
sbsS'streambuf'
p1416
g293
(g891
g295
Ntp1417
Rp1418
(dp1419
g895
g896
sg897
g906
sg319
S'c:/marmalade/7.4/s3e/h/std/c++/streambuf'
p1420
sbsS'malloc.h'
p1421
g293
(g891
g295
Ntp1422
Rp1423
(dp1424
g895
g896
sg897
g898
sg319
S'c:/marmalade/7.4/s3e/h/std/malloc.h'
p1425
sbsS'signal_1.h'
p1426
g293
(g891
g295
Ntp1427
Rp1428
(dp1429
g895
g896
sg897
g1047
sg319
S'c:/marmalade/7.4/s3e/h/std/sys/signal.h'
p1430
sbsS'cstdarg'
p1431
g293
(g891
g295
Ntp1432
Rp1433
(dp1434
g895
g896
sg897
g906
sg319
S'c:/marmalade/7.4/s3e/h/std/c++/cstdarg'
p1435
sbsS'stdarg.h'
p1436
g293
(g891
g295
Ntp1437
Rp1438
(dp1439
g895
g896
sg897
g898
sg319
S'c:/marmalade/7.4/s3e/h/std/stdarg.h'
p1440
sbsS'strstream.h'
p1441
g293
(g891
g295
Ntp1442
Rp1443
(dp1444
g895
g896
sg897
g906
sg319
S'c:/marmalade/7.4/s3e/h/std/c++/strstream.h'
p1445
sbsS'shm.h'
p1446
g293
(g891
g295
Ntp1447
Rp1448
(dp1449
g895
g896
sg897
g1047
sg319
S'c:/marmalade/7.4/s3e/h/std/sys/shm.h'
p1450
sbsS'set'
p1451
g293
(g891
g295
Ntp1452
Rp1453
(dp1454
g895
g896
sg897
g906
sg319
S'c:/marmalade/7.4/s3e/h/std/c++/set'
p1455
sbsS'endian.h'
p1456
g293
(g891
g295
Ntp1457
Rp1458
(dp1459
g895
g896
sg897
g898
sg319
S'c:/marmalade/7.4/s3e/h/std/endian.h'
p1460
sbsS'gl2ext.h'
p1461
g293
(g891
g295
Ntp1462
Rp1463
(dp1464
g895
g896
sg897
g1106
sg319
S'c:/marmalade/7.4/s3e/h/GLES2/gl2ext.h'
p1465
sbsS'un.h'
p1466
g293
(g891
g295
Ntp1467
Rp1468
(dp1469
g895
g896
sg897
g1047
sg319
S'c:/marmalade/7.4/s3e/h/std/sys/un.h'
p1470
sbsS'temp_defines_debug.h'
p1471
g293
(g891
g295
Ntp1472
Rp1473
(dp1474
g895
(lp1475
sg897
(lp1476
S"'generated files'"
p1477
asg319
S'e:/Documents/Michiel/Programmeren/Marmalade/HelloWorld/build_helloworld_vc12x/temp_defines_debug.h'
p1478
sbsS'gl3ext.h'
p1479
g293
(g891
g295
Ntp1480
Rp1481
(dp1482
g895
g896
sg897
(lp1483
g899
aS'GL'
p1484
aS'GLES 3.0'
p1485
asg319
S'c:/marmalade/7.4/s3e/h/GLES3/gl3ext.h'
p1486
sbsS's3eSound.h'
p1487
g293
(g891
g295
Ntp1488
Rp1489
(dp1490
g895
g896
sg897
g934
sg319
S'c:/marmalade/7.4/s3e/h/s3eSound.h'
p1491
sbsS'glob.h'
p1492
g293
(g891
g295
Ntp1493
Rp1494
(dp1495
g895
g896
sg897
g898
sg319
S'c:/marmalade/7.4/s3e/h/std/glob.h'
p1496
sbsS'file.h'
p1497
g293
(g891
g295
Ntp1498
Rp1499
(dp1500
g895
g896
sg897
g1047
sg319
S'c:/marmalade/7.4/s3e/h/std/sys/file.h'
p1501
sbsS's3eIOSBackgroundAudio.h'
p1502
g293
(g891
g295
Ntp1503
Rp1504
(dp1505
g895
g896
sg897
g950
sg319
S'c:/marmalade/7.4/s3e/h/ext/s3eIOSBackgroundAudio.h'
p1506
sbsS'cstring'
p1507
g293
(g891
g295
Ntp1508
Rp1509
(dp1510
g895
g896
sg897
g906
sg319
S'c:/marmalade/7.4/s3e/h/std/c++/cstring'
p1511
sbsS'cerrno'
p1512
g293
(g891
g295
Ntp1513
Rp1514
(dp1515
g895
g896
sg897
g906
sg319
S'c:/marmalade/7.4/s3e/h/std/c++/cerrno'
p1516
sbsS'exception.h'
p1517
g293
(g891
g295
Ntp1518
Rp1519
(dp1520
g895
g896
sg897
g906
sg319
S'c:/marmalade/7.4/s3e/h/std/c++/exception.h'
p1521
sbsS's3eCamera.h'
p1522
g293
(g891
g295
Ntp1523
Rp1524
(dp1525
g895
g896
sg897
g934
sg319
S'c:/marmalade/7.4/s3e/h/s3eCamera.h'
p1526
sbsS'clocale'
p1527
g293
(g891
g295
Ntp1528
Rp1529
(dp1530
g895
g896
sg897
g906
sg319
S'c:/marmalade/7.4/s3e/h/std/c++/clocale'
p1531
sbsS'memory'
p1532
g293
(g891
g295
Ntp1533
Rp1534
(dp1535
g895
g896
sg897
g906
sg319
S'c:/marmalade/7.4/s3e/h/std/c++/memory'
p1536
sbsS'egl.h'
p1537
g293
(g891
g295
Ntp1538
Rp1539
(dp1540
g895
g896
sg897
g1392
sg319
S'c:/marmalade/7.4/s3e/h/EGL/egl.h'
p1541
sbsS'egl_1.h'
p1542
g293
(g891
g295
Ntp1543
Rp1544
(dp1545
g895
g896
sg897
g1303
sg319
S'c:/marmalade/7.4/s3e/h/GLES/egl.h'
p1546
sbsS'deque'
p1547
g293
(g891
g295
Ntp1548
Rp1549
(dp1550
g895
g896
sg897
g906
sg319
S'c:/marmalade/7.4/s3e/h/std/c++/deque'
p1551
sbsS'gl.h'
p1552
g293
(g891
g295
Ntp1553
Rp1554
(dp1555
g895
g896
sg897
g1303
sg319
S'c:/marmalade/7.4/s3e/h/GLES/gl.h'
p1556
sbsS's3eCrypto.h'
p1557
g293
(g891
g295
Ntp1558
Rp1559
(dp1560
g895
g896
sg897
g934
sg319
S'c:/marmalade/7.4/s3e/h/s3eCrypto.h'
p1561
sbsS's3eKeyboard.h'
p1562
g293
(g891
g295
Ntp1563
Rp1564
(dp1565
g895
g896
sg897
g934
sg319
S'c:/marmalade/7.4/s3e/h/s3eKeyboard.h'
p1566
sbsS's3eSMS.h'
p1567
g293
(g891
g295
Ntp1568
Rp1569
(dp1570
g895
g896
sg897
g950
sg319
S'c:/marmalade/7.4/s3e/h/ext/s3eSMS.h'
p1571
sbsS'cctype'
p1572
g293
(g891
g295
Ntp1573
Rp1574
(dp1575
g895
g896
sg897
g906
sg319
S'c:/marmalade/7.4/s3e/h/std/c++/cctype'
p1576
sbsS'limits.h'
p1577
g293
(g891
g295
Ntp1578
Rp1579
(dp1580
g895
g896
sg897
g898
sg319
S'c:/marmalade/7.4/s3e/h/std/limits.h'
p1581
sbsS'fcntl.h'
p1582
g293
(g891
g295
Ntp1583
Rp1584
(dp1585
g895
g896
sg897
g898
sg319
S'c:/marmalade/7.4/s3e/h/std/fcntl.h'
p1586
sbsS'sigcontext.h'
p1587
g293
(g891
g295
Ntp1588
Rp1589
(dp1590
g895
g896
sg897
g898
sg319
S'c:/marmalade/7.4/s3e/h/std/sigcontext.h'
p1591
sbsS'csignal'
p1592
g293
(g891
g295
Ntp1593
Rp1594
(dp1595
g895
g896
sg897
g906
sg319
S'c:/marmalade/7.4/s3e/h/std/c++/csignal'
p1596
sbsS'types.h'
p1597
g293
(g891
g295
Ntp1598
Rp1599
(dp1600
g895
g896
sg897
g1047
sg319
S'c:/marmalade/7.4/s3e/h/std/sys/types.h'
p1601
sbsS'pthread_types.h'
p1602
g293
(g891
g295
Ntp1603
Rp1604
(dp1605
g895
g896
sg897
g898
sg319
S'c:/marmalade/7.4/s3e/h/std/pthread_types.h'
p1606
sbsS'ifaddrs.h'
p1607
g293
(g891
g295
Ntp1608
Rp1609
(dp1610
g895
g896
sg897
g898
sg319
S'c:/marmalade/7.4/s3e/h/std/ifaddrs.h'
p1611
sbsS'MainMenu.h'
p1612
g293
(g891
g295
Ntp1613
Rp1614
(dp1615
g895
g879
sg897
g977
sg319
g884
sbsS'memory.h'
p1616
g293
(g891
g295
Ntp1617
Rp1618
(dp1619
g895
g896
sg897
g898
sg319
S'c:/marmalade/7.4/s3e/h/std/memory.h'
p1620
sbsS'getopt.h'
p1621
g293
(g891
g295
Ntp1622
Rp1623
(dp1624
g895
g896
sg897
g898
sg319
S'c:/marmalade/7.4/s3e/h/std/getopt.h'
p1625
sbsS'strstream'
p1626
g293
(g891
g295
Ntp1627
Rp1628
(dp1629
g895
g896
sg897
g906
sg319
S'c:/marmalade/7.4/s3e/h/std/c++/strstream'
p1630
sbsS'times.h'
p1631
g293
(g891
g295
Ntp1632
Rp1633
(dp1634
g895
g896
sg897
g1047
sg319
S'c:/marmalade/7.4/s3e/h/std/sys/times.h'
p1635
sbsS'exception'
p1636
g293
(g891
g295
Ntp1637
Rp1638
(dp1639
g895
g896
sg897
g906
sg319
S'c:/marmalade/7.4/s3e/h/std/c++/exception'
p1640
sbsS'pthread.h'
p1641
g293
(g891
g295
Ntp1642
Rp1643
(dp1644
g895
g896
sg897
g898
sg319
S'c:/marmalade/7.4/s3e/h/std/pthread.h'
p1645
sbsS'algorithm'
p1646
g293
(g891
g295
Ntp1647
Rp1648
(dp1649
g895
g896
sg897
g906
sg319
S'c:/marmalade/7.4/s3e/h/std/c++/algorithm'
p1650
sbsS'rlocks.h'
p1651
g293
(g891
g295
Ntp1652
Rp1653
(dp1654
g895
g896
sg897
g906
sg319
S'c:/marmalade/7.4/s3e/h/std/c++/rlocks.h'
p1655
sbsS'functional'
p1656
g293
(g891
g295
Ntp1657
Rp1658
(dp1659
g895
g896
sg897
g906
sg319
S'c:/marmalade/7.4/s3e/h/std/c++/functional'
p1660
sbsS'ioctl.h'
p1661
g293
(g891
g295
Ntp1662
Rp1663
(dp1664
g895
g896
sg897
g1047
sg319
S'c:/marmalade/7.4/s3e/h/std/sys/ioctl.h'
p1665
sbsS'rope'
p1666
g293
(g891
g295
Ntp1667
Rp1668
(dp1669
g895
g896
sg897
g906
sg319
S'c:/marmalade/7.4/s3e/h/std/c++/rope'
p1670
sbsS's3eHash.h'
p1671
g293
(g891
g295
Ntp1672
Rp1673
(dp1674
g895
g896
sg897
g934
sg319
S'c:/marmalade/7.4/s3e/h/s3eHash.h'
p1675
sbsS'ostream.h'
p1676
g293
(g891
g295
Ntp1677
Rp1678
(dp1679
g895
g896
sg897
g906
sg319
S'c:/marmalade/7.4/s3e/h/std/c++/ostream.h'
p1680
sbsS's3eSocket.h'
p1681
g293
(g891
g295
Ntp1682
Rp1683
(dp1684
g895
g896
sg897
g934
sg319
S'c:/marmalade/7.4/s3e/h/s3eSocket.h'
p1685
sbsS'unistd.h'
p1686
g293
(g891
g295
Ntp1687
Rp1688
(dp1689
g895
g896
sg897
g898
sg319
S'c:/marmalade/7.4/s3e/h/std/unistd.h'
p1690
sbsS'iconv.h'
p1691
g293
(g891
g295
Ntp1692
Rp1693
(dp1694
g895
g896
sg897
g898
sg319
S'c:/marmalade/7.4/s3e/h/std/iconv.h'
p1695
sbsS'ipc.h'
p1696
g293
(g891
g295
Ntp1697
Rp1698
(dp1699
g895
g896
sg897
g1047
sg319
S'c:/marmalade/7.4/s3e/h/std/sys/ipc.h'
p1700
sbsS's3eDevice.h'
p1701
g293
(g891
g295
Ntp1702
Rp1703
(dp1704
g895
g896
sg897
g934
sg319
S'c:/marmalade/7.4/s3e/h/s3eDevice.h'
p1705
sbsS'poll_1.h'
p1706
g293
(g891
g295
Ntp1707
Rp1708
(dp1709
g895
g896
sg897
g1047
sg319
S'c:/marmalade/7.4/s3e/h/std/sys/poll.h'
p1710
sbsS's3eThread.h'
p1711
g293
(g891
g295
Ntp1712
Rp1713
(dp1714
g895
g896
sg897
g934
sg319
S'c:/marmalade/7.4/s3e/h/s3eThread.h'
p1715
sbsS'stl_user_config.h'
p1716
g293
(g891
g295
Ntp1717
Rp1718
(dp1719
g895
g896
sg897
g906
sg319
S'c:/marmalade/7.4/s3e/h/std/c++/stl_user_config.h'
p1720
sbsS's3eCompression.h'
p1721
g293
(g891
g295
Ntp1722
Rp1723
(dp1724
g895
g896
sg897
g934
sg319
S'c:/marmalade/7.4/s3e/h/s3eCompression.h'
p1725
sbsS'langinfo.h'
p1726
g293
(g891
g295
Ntp1727
Rp1728
(dp1729
g895
g896
sg897
g898
sg319
S'c:/marmalade/7.4/s3e/h/std/langinfo.h'
p1730
sbsS's3edebugHeap.h'
p1731
g293
(g891
g295
Ntp1732
Rp1733
(dp1734
g895
g896
sg897
g950
sg319
S'c:/marmalade/7.4/s3e/h/ext/s3edebugHeap.h'
p1735
sbsS'time.h'
p1736
g293
(g891
g295
Ntp1737
Rp1738
(dp1739
g895
g896
sg897
g898
sg319
S'c:/marmalade/7.4/s3e/h/std/time.h'
p1740
sbsS'AirplayVersion.h'
p1741
g293
(g891
g295
Ntp1742
Rp1743
(dp1744
g895
g896
sg897
g934
sg319
S'c:/marmalade/7.4/s3e/h/AirplayVersion.h'
p1745
sbsS'stdexcept'
p1746
g293
(g891
g295
Ntp1747
Rp1748
(dp1749
g895
g896
sg897
g906
sg319
S'c:/marmalade/7.4/s3e/h/std/c++/stdexcept'
p1750
sbsS's3eSoundRecord.h'
p1751
g293
(g891
g295
Ntp1752
Rp1753
(dp1754
g895
g896
sg897
g934
sg319
S'c:/marmalade/7.4/s3e/h/s3eSoundRecord.h'
p1755
sbsS'gl2extimg.h'
p1756
g293
(g891
g295
Ntp1757
Rp1758
(dp1759
g895
g896
sg897
g1106
sg319
S'c:/marmalade/7.4/s3e/h/GLES2/gl2extimg.h'
p1760
sbsS's3eConfig.h'
p1761
g293
(g891
g295
Ntp1762
Rp1763
(dp1764
g895
g896
sg897
g934
sg319
S'c:/marmalade/7.4/s3e/h/s3eConfig.h'
p1765
sbsS'app.config.txt'
p1766
g293
(g891
g295
Ntp1767
Rp1768
(dp1769
g895
(dp1770
sg897
g4
sg319
S'e:/Documents/Michiel/Programmeren/Marmalade/HelloWorld/data/app.config.txt'
p1771
sbsS'stat.h'
p1772
g293
(g891
g295
Ntp1773
Rp1774
(dp1775
g895
g896
sg897
g1047
sg319
S'c:/marmalade/7.4/s3e/h/std/sys/stat.h'
p1776
sbsS's3eVersion.h'
p1777
g293
(g891
g295
Ntp1778
Rp1779
(dp1780
g895
g896
sg897
g934
sg319
S'c:/marmalade/7.4/s3e/h/s3eVersion.h'
p1781
sbsS'MarmaladeVersion.h'
p1782
g293
(g891
g295
Ntp1783
Rp1784
(dp1785
g895
g896
sg897
g934
sg319
S'c:/marmalade/7.4/s3e/h/MarmaladeVersion.h'
p1786
sbsS'syslog.h'
p1787
g293
(g891
g295
Ntp1788
Rp1789
(dp1790
g895
g896
sg897
g898
sg319
S'c:/marmalade/7.4/s3e/h/std/syslog.h'
p1791
sbsS'gl3platform.h'
p1792
g293
(g891
g295
Ntp1793
Rp1794
(dp1795
g895
g896
sg897
g1483
sg319
S'c:/marmalade/7.4/s3e/h/GLES3/gl3platform.h'
p1796
sbsS'byteswap.h'
p1797
g293
(g891
g295
Ntp1798
Rp1799
(dp1800
g895
g896
sg897
g898
sg319
S'c:/marmalade/7.4/s3e/h/std/byteswap.h'
p1801
sbsS'ios.h'
p1802
g293
(g891
g295
Ntp1803
Rp1804
(dp1805
g895
g896
sg897
g906
sg319
S'c:/marmalade/7.4/s3e/h/std/c++/ios.h'
p1806
sbsS'hash_map'
p1807
g293
(g891
g295
Ntp1808
Rp1809
(dp1810
g895
g896
sg897
g906
sg319
S'c:/marmalade/7.4/s3e/h/std/c++/hash_map'
p1811
sbsS'pthread_1.h'
p1812
g293
(g891
g295
Ntp1813
Rp1814
(dp1815
g895
g896
sg897
g906
sg319
S'c:/marmalade/7.4/s3e/h/std/c++/pthread.h'
p1816
sbsS's3e.mkf'
p1817
g293
(g891
g295
Ntp1818
Rp1819
(dp1820
g895
(dp1821
sg897
g934
sg319
S'c:/marmalade/7.4/s3e/s3e.mkf'
p1822
sbsS'hash_set'
p1823
g293
(g891
g295
Ntp1824
Rp1825
(dp1826
g895
g896
sg897
g906
sg319
S'c:/marmalade/7.4/s3e/h/std/c++/hash_set'
p1827
sbsS's3eTypes.h'
p1828
g293
(g891
g295
Ntp1829
Rp1830
(dp1831
g895
g896
sg897
g934
sg319
S'c:/marmalade/7.4/s3e/h/s3eTypes.h'
p1832
sbsS's3eContacts.h'
p1833
g293
(g891
g295
Ntp1834
Rp1835
(dp1836
g895
g896
sg897
g934
sg319
S'c:/marmalade/7.4/s3e/h/s3eContacts.h'
p1837
sbsS's3eOSReadString.h'
p1838
g293
(g891
g295
Ntp1839
Rp1840
(dp1841
g895
g896
sg897
g950
sg319
S'c:/marmalade/7.4/s3e/h/ext/s3eOSReadString.h'
p1842
sbsS'eglplatform.h'
p1843
g293
(g891
g295
Ntp1844
Rp1845
(dp1846
g895
g896
sg897
g1392
sg319
S'c:/marmalade/7.4/s3e/h/EGL/eglplatform.h'
p1847
sbsS'signal_2.h'
p1848
g293
(g891
g295
Ntp1849
Rp1850
(dp1851
g895
g896
sg897
g906
sg319
S'c:/marmalade/7.4/s3e/h/std/c++/signal.h'
p1852
sbsS'stdbool.h'
p1853
g293
(g891
g295
Ntp1854
Rp1855
(dp1856
g895
g896
sg897
g898
sg319
S'c:/marmalade/7.4/s3e/h/std/stdbool.h'
p1857
sbsS's3e.icf'
p1858
g293
(g891
g295
Ntp1859
Rp1860
(dp1861
g895
g896
sg897
g934
sg319
S'c:/marmalade/7.4/s3e/s3e.icf'
p1862
sbsS'math_gcc.h'
p1863
g293
(g891
g295
Ntp1864
Rp1865
(dp1866
g895
g896
sg897
g898
sg319
S'c:/marmalade/7.4/s3e/h/std/math_gcc.h'
p1867
sbsS's3eMemory.h'
p1868
g293
(g891
g295
Ntp1869
Rp1870
(dp1871
g895
g896
sg897
g934
sg319
S'c:/marmalade/7.4/s3e/h/s3eMemory.h'
p1872
sbsS'map'
p1873
g293
(g891
g295
Ntp1874
Rp1875
(dp1876
g895
g896
sg897
g906
sg319
S'c:/marmalade/7.4/s3e/h/std/c++/map'
p1877
sbsS'sem.h'
p1878
g293
(g891
g295
Ntp1879
Rp1880
(dp1881
g895
g896
sg897
g1047
sg319
S'c:/marmalade/7.4/s3e/h/std/sys/sem.h'
p1882
sbsS'wchar.h'
p1883
g293
(g891
g295
Ntp1884
Rp1885
(dp1886
g895
g896
sg897
g898
sg319
S'c:/marmalade/7.4/s3e/h/std/wchar.h'
p1887
sbsS'stdio.h'
p1888
g293
(g891
g295
Ntp1889
Rp1890
(dp1891
g895
g896
sg897
g898
sg319
S'c:/marmalade/7.4/s3e/h/std/stdio.h'
p1892
sbsS's3eFile.h'
p1893
g293
(g891
g295
Ntp1894
Rp1895
(dp1896
g895
g896
sg897
g934
sg319
S'c:/marmalade/7.4/s3e/h/s3eFile.h'
p1897
sbsS'type_traits.h'
p1898
g293
(g891
g295
Ntp1899
Rp1900
(dp1901
g895
g896
sg897
g906
sg319
S'c:/marmalade/7.4/s3e/h/std/c++/type_traits.h'
p1902
sbsS'ios'
p1903
g293
(g891
g295
Ntp1904
Rp1905
(dp1906
g895
g896
sg897
g906
sg319
S'c:/marmalade/7.4/s3e/h/std/c++/ios'
p1907
sbsS'msl_string.h'
p1908
g293
(g891
g295
Ntp1909
Rp1910
(dp1911
g895
g896
sg897
g906
sg319
S'c:/marmalade/7.4/s3e/h/std/c++/msl_string.h'
p1912
sbsS'select.h'
p1913
g293
(g891
g295
Ntp1914
Rp1915
(dp1916
g895
g896
sg897
g1047
sg319
S'c:/marmalade/7.4/s3e/h/std/sys/select.h'
p1917
sbsS's3eAudio.h'
p1918
g293
(g891
g295
Ntp1919
Rp1920
(dp1921
g895
g896
sg897
g934
sg319
S'c:/marmalade/7.4/s3e/h/s3eAudio.h'
p1922
sbsS'cstdlib'
p1923
g293
(g891
g295
Ntp1924
Rp1925
(dp1926
g895
g896
sg897
g906
sg319
S'c:/marmalade/7.4/s3e/h/std/c++/cstdlib'
p1927
sbsS's3eLocation.h'
p1928
g293
(g891
g295
Ntp1929
Rp1930
(dp1931
g895
g896
sg897
g934
sg319
S'c:/marmalade/7.4/s3e/h/s3eLocation.h'
p1932
sbsS'resource.h'
p1933
g293
(g891
g295
Ntp1934
Rp1935
(dp1936
g895
g896
sg897
g1047
sg319
S'c:/marmalade/7.4/s3e/h/std/sys/resource.h'
p1937
sbsS'cmath'
p1938
g293
(g891
g295
Ntp1939
Rp1940
(dp1941
g895
g896
sg897
g906
sg319
S'c:/marmalade/7.4/s3e/h/std/c++/cmath'
p1942
sbsS'signal.h'
p1943
g293
(g891
g295
Ntp1944
Rp1945
(dp1946
g895
g896
sg897
g898
sg319
S'c:/marmalade/7.4/s3e/h/std/signal.h'
p1947
sbsS'csetjmp'
p1948
g293
(g891
g295
Ntp1949
Rp1950
(dp1951
g895
g896
sg897
g906
sg319
S'c:/marmalade/7.4/s3e/h/std/c++/csetjmp'
p1952
sbsS's3eLibrary.h'
p1953
g293
(g891
g295
Ntp1954
Rp1955
(dp1956
g895
g896
sg897
g950
sg319
S'c:/marmalade/7.4/s3e/h/ext/s3eLibrary.h'
p1957
sbsS'netdb.h'
p1958
g293
(g891
g295
Ntp1959
Rp1960
(dp1961
g895
g896
sg897
g898
sg319
S'c:/marmalade/7.4/s3e/h/std/netdb.h'
p1962
sbsS's3eAndroidJNI.h'
p1963
g293
(g891
g295
Ntp1964
Rp1965
(dp1966
g895
g896
sg897
g950
sg319
S'c:/marmalade/7.4/s3e/h/ext/s3eAndroidJNI.h'
p1967
sbsS'new.h'
p1968
g293
(g891
g295
Ntp1969
Rp1970
(dp1971
g895
g896
sg897
g906
sg319
S'c:/marmalade/7.4/s3e/h/std/c++/new.h'
p1972
sbsS'math.h'
p1973
g293
(g891
g295
Ntp1974
Rp1975
(dp1976
g895
g896
sg897
g898
sg319
S'c:/marmalade/7.4/s3e/h/std/math.h'
p1977
sbsS's3eClipboard.h'
p1978
g293
(g891
g295
Ntp1979
Rp1980
(dp1981
g895
g896
sg897
g934
sg319
S'c:/marmalade/7.4/s3e/h/s3eClipboard.h'
p1982
sbsS's3eGL.h'
p1983
g293
(g891
g295
Ntp1984
Rp1985
(dp1986
g895
g896
sg897
g934
sg319
S'c:/marmalade/7.4/s3e/h/s3eGL.h'
p1987
sbsS's3eDebug.h'
p1988
g293
(g891
g295
Ntp1989
Rp1990
(dp1991
g895
g896
sg897
g934
sg319
S'c:/marmalade/7.4/s3e/h/s3eDebug.h'
p1992
sbsS's3eEMail.h'
p1993
g293
(g891
g295
Ntp1994
Rp1995
(dp1996
g895
g896
sg897
g950
sg319
S'c:/marmalade/7.4/s3e/h/ext/s3eEMail.h'
p1997
sbsS'uio.h'
p1998
g293
(g891
g295
Ntp1999
Rp2000
(dp2001
g895
g896
sg897
g1047
sg319
S'c:/marmalade/7.4/s3e/h/std/sys/uio.h'
p2002
sbsS'glext.h'
p2003
g293
(g891
g295
Ntp2004
Rp2005
(dp2006
g895
g896
sg897
g1303
sg319
S'c:/marmalade/7.4/s3e/h/GLES/glext.h'
p2007
sbsS's3eVideo.h'
p2008
g293
(g891
g295
Ntp2009
Rp2010
(dp2011
g895
g896
sg897
g934
sg319
S'c:/marmalade/7.4/s3e/h/s3eVideo.h'
p2012
sbsS'pwd.h'
p2013
g293
(g891
g295
Ntp2014
Rp2015
(dp2016
g895
g896
sg897
g898
sg319
S'c:/marmalade/7.4/s3e/h/std/pwd.h'
p2017
sbsS'typeinfo.h'
p2018
g293
(g891
g295
Ntp2019
Rp2020
(dp2021
g895
g896
sg897
g906
sg319
S'c:/marmalade/7.4/s3e/h/std/c++/typeinfo.h'
p2022
sbsS'temp_defines_release.h'
p2023
g293
(g891
g295
Ntp2024
Rp2025
(dp2026
g895
(lp2027
sg897
(lp2028
g1477
asg319
S'e:/Documents/Michiel/Programmeren/Marmalade/HelloWorld/build_helloworld_vc12x/temp_defines_release.h'
p2029
sbsS'gl3.h'
p2030
g293
(g891
g295
Ntp2031
Rp2032
(dp2033
g895
g896
sg897
g1483
sg319
S'c:/marmalade/7.4/s3e/h/GLES3/gl3.h'
p2034
sbssS'juice_build_type'
p2035
g4
sS'tests'
p2036
(lp2037
sS'project_name'
p2038
g301
sS'root_file'
p2039
g120
sS'current_root'
p2040
S'e:/Documents/Michiel/Programmeren/Marmalade/HelloWorld'
p2041
sS'dependencies'
p2042
(lp2043
sS'include_paths'
p2044
(lp2045
S'c:/marmalade/7.4/s3e/h'
p2046
aS'c:/marmalade/7.4/s3e/h/ext'
p2047
aS'c:/marmalade/7.4/s3e/h/std'
p2048
aS'c:/marmalade/7.4/s3e/h/std/c++'
p2049
aS'c:/marmalade/7.4/s3e/h/ext_legacy'
p2050
aS'c:/marmalade/7.4/s3e/h/legacy'
p2051
asS'weak_frameworks'
p2052
(lp2053
sS'extprojects'
p2054
(dp2055
sg419
(dp2056
g413
(lp2057
(g77
S'.'
p2058
I0
tp2059
assS'macro_types'
p2060
(dp2061
g395
I0
sg396
I0
sg397
I0
sg398
I0
sg399
I0
sg400
I0
sg401
I0
sg403
I0
sg404
I0
sg406
I01
ssS'commands'
p2062
(lp2063
sg421
(g868
S'VC12X'
p2064
S'X86ARM'
p2065
tp2066
sS'build_libs'
p2067
(dp2068
sg423
g0
sS'frameworks'
p2069
(lp2070
sS'environ'
p2071
(dp2072
sS'target_name_debug'
p2073
g301
sS'builders'
p2074
(dp2075
g413
(dp2076
S'.S'
p2077
(dp2078
S'rvct'
p2079
(lp2080
S'.obj'
p2081
aS'echo ARM Assembling(RVCT) ${SOURCE}...'
p2082
aS'c:/marmalade/7.4/s3e\\rvct\\bin\\armasm -o ${TARGET} ${SOURCE}'
p2083
asg366
(lp2084
g2081
aS'echo ARM Assembling(GCC) ${SOURCE}...'
p2085
aS'c:/marmalade/7.4/s3e\\gcc\\bin\\arm-none-eabi-gcc -c -o ${TARGET} ${SOURCE}'
p2086
asS'ppu'
p2087
(lp2088
S'.a'
p2089
aS'echo PPU Assembling(SNC) ${SOURCE}...'
p2090
aS'c:/marmalade/7.4/s3e\\rvct\\bin\\armasm -o ${TARGET} ${SOURCE}'
p2091
assS'.s'
p2092
g2078
sssS'extproject_names'
p2093
(lp2094
sbtp2095
.